
bomb:     file format elf64-x86-64


Disassembly of section .init:

0000000000400a98 <_init>:
  400a98:	48 83 ec 08          	sub    $0x8,%rsp
  400a9c:	48 8b 05 55 35 20 00 	mov    0x203555(%rip),%rax        # 603ff8 <__gmon_start__>
  400aa3:	48 85 c0             	test   %rax,%rax
  400aa6:	74 05                	je     400aad <_init+0x15>
  400aa8:	e8 13 01 00 00       	call   400bc0 <__gmon_start__@plt>
  400aad:	48 83 c4 08          	add    $0x8,%rsp
  400ab1:	c3                   	ret    

Disassembly of section .plt:

0000000000400ac0 <.plt>:
  400ac0:	ff 35 42 35 20 00    	push   0x203542(%rip)        # 604008 <_GLOBAL_OFFSET_TABLE_+0x8>
  400ac6:	ff 25 44 35 20 00    	jmp    *0x203544(%rip)        # 604010 <_GLOBAL_OFFSET_TABLE_+0x10>
  400acc:	0f 1f 40 00          	nopl   0x0(%rax)

0000000000400ad0 <getenv@plt>:
  400ad0:	ff 25 42 35 20 00    	jmp    *0x203542(%rip)        # 604018 <getenv@GLIBC_2.2.5>
  400ad6:	68 00 00 00 00       	push   $0x0
  400adb:	e9 e0 ff ff ff       	jmp    400ac0 <.plt>

0000000000400ae0 <strcasecmp@plt>:
  400ae0:	ff 25 3a 35 20 00    	jmp    *0x20353a(%rip)        # 604020 <strcasecmp@GLIBC_2.2.5>
  400ae6:	68 01 00 00 00       	push   $0x1
  400aeb:	e9 d0 ff ff ff       	jmp    400ac0 <.plt>

0000000000400af0 <__errno_location@plt>:
  400af0:	ff 25 32 35 20 00    	jmp    *0x203532(%rip)        # 604028 <__errno_location@GLIBC_2.2.5>
  400af6:	68 02 00 00 00       	push   $0x2
  400afb:	e9 c0 ff ff ff       	jmp    400ac0 <.plt>

0000000000400b00 <strcpy@plt>:
  400b00:	ff 25 2a 35 20 00    	jmp    *0x20352a(%rip)        # 604030 <strcpy@GLIBC_2.2.5>
  400b06:	68 03 00 00 00       	push   $0x3
  400b0b:	e9 b0 ff ff ff       	jmp    400ac0 <.plt>

0000000000400b10 <puts@plt>:
  400b10:	ff 25 22 35 20 00    	jmp    *0x203522(%rip)        # 604038 <puts@GLIBC_2.2.5>
  400b16:	68 04 00 00 00       	push   $0x4
  400b1b:	e9 a0 ff ff ff       	jmp    400ac0 <.plt>

0000000000400b20 <write@plt>:
  400b20:	ff 25 1a 35 20 00    	jmp    *0x20351a(%rip)        # 604040 <write@GLIBC_2.2.5>
  400b26:	68 05 00 00 00       	push   $0x5
  400b2b:	e9 90 ff ff ff       	jmp    400ac0 <.plt>

0000000000400b30 <printf@plt>:
  400b30:	ff 25 12 35 20 00    	jmp    *0x203512(%rip)        # 604048 <printf@GLIBC_2.2.5>
  400b36:	68 06 00 00 00       	push   $0x6
  400b3b:	e9 80 ff ff ff       	jmp    400ac0 <.plt>

0000000000400b40 <alarm@plt>:
  400b40:	ff 25 0a 35 20 00    	jmp    *0x20350a(%rip)        # 604050 <alarm@GLIBC_2.2.5>
  400b46:	68 07 00 00 00       	push   $0x7
  400b4b:	e9 70 ff ff ff       	jmp    400ac0 <.plt>

0000000000400b50 <close@plt>:
  400b50:	ff 25 02 35 20 00    	jmp    *0x203502(%rip)        # 604058 <close@GLIBC_2.2.5>
  400b56:	68 08 00 00 00       	push   $0x8
  400b5b:	e9 60 ff ff ff       	jmp    400ac0 <.plt>

0000000000400b60 <read@plt>:
  400b60:	ff 25 fa 34 20 00    	jmp    *0x2034fa(%rip)        # 604060 <read@GLIBC_2.2.5>
  400b66:	68 09 00 00 00       	push   $0x9
  400b6b:	e9 50 ff ff ff       	jmp    400ac0 <.plt>

0000000000400b70 <__libc_start_main@plt>:
  400b70:	ff 25 f2 34 20 00    	jmp    *0x2034f2(%rip)        # 604068 <__libc_start_main@GLIBC_2.2.5>
  400b76:	68 0a 00 00 00       	push   $0xa
  400b7b:	e9 40 ff ff ff       	jmp    400ac0 <.plt>

0000000000400b80 <fgets@plt>:
  400b80:	ff 25 ea 34 20 00    	jmp    *0x2034ea(%rip)        # 604070 <fgets@GLIBC_2.2.5>
  400b86:	68 0b 00 00 00       	push   $0xb
  400b8b:	e9 30 ff ff ff       	jmp    400ac0 <.plt>

0000000000400b90 <signal@plt>:
  400b90:	ff 25 e2 34 20 00    	jmp    *0x2034e2(%rip)        # 604078 <signal@GLIBC_2.2.5>
  400b96:	68 0c 00 00 00       	push   $0xc
  400b9b:	e9 20 ff ff ff       	jmp    400ac0 <.plt>

0000000000400ba0 <gethostbyname@plt>:
  400ba0:	ff 25 da 34 20 00    	jmp    *0x2034da(%rip)        # 604080 <gethostbyname@GLIBC_2.2.5>
  400ba6:	68 0d 00 00 00       	push   $0xd
  400bab:	e9 10 ff ff ff       	jmp    400ac0 <.plt>

0000000000400bb0 <fprintf@plt>:
  400bb0:	ff 25 d2 34 20 00    	jmp    *0x2034d2(%rip)        # 604088 <fprintf@GLIBC_2.2.5>
  400bb6:	68 0e 00 00 00       	push   $0xe
  400bbb:	e9 00 ff ff ff       	jmp    400ac0 <.plt>

0000000000400bc0 <__gmon_start__@plt>:
  400bc0:	ff 25 ca 34 20 00    	jmp    *0x2034ca(%rip)        # 604090 <__gmon_start__>
  400bc6:	68 0f 00 00 00       	push   $0xf
  400bcb:	e9 f0 fe ff ff       	jmp    400ac0 <.plt>

0000000000400bd0 <memcpy@plt>:
  400bd0:	ff 25 c2 34 20 00    	jmp    *0x2034c2(%rip)        # 604098 <memcpy@GLIBC_2.14>
  400bd6:	68 10 00 00 00       	push   $0x10
  400bdb:	e9 e0 fe ff ff       	jmp    400ac0 <.plt>

0000000000400be0 <fflush@plt>:
  400be0:	ff 25 ba 34 20 00    	jmp    *0x2034ba(%rip)        # 6040a0 <fflush@GLIBC_2.2.5>
  400be6:	68 11 00 00 00       	push   $0x11
  400beb:	e9 d0 fe ff ff       	jmp    400ac0 <.plt>

0000000000400bf0 <__isoc99_sscanf@plt>:
  400bf0:	ff 25 b2 34 20 00    	jmp    *0x2034b2(%rip)        # 6040a8 <__isoc99_sscanf@GLIBC_2.7>
  400bf6:	68 12 00 00 00       	push   $0x12
  400bfb:	e9 c0 fe ff ff       	jmp    400ac0 <.plt>

0000000000400c00 <bcopy@plt>:
  400c00:	ff 25 aa 34 20 00    	jmp    *0x2034aa(%rip)        # 6040b0 <bcopy@GLIBC_2.2.5>
  400c06:	68 13 00 00 00       	push   $0x13
  400c0b:	e9 b0 fe ff ff       	jmp    400ac0 <.plt>

0000000000400c10 <fopen@plt>:
  400c10:	ff 25 a2 34 20 00    	jmp    *0x2034a2(%rip)        # 6040b8 <fopen@GLIBC_2.2.5>
  400c16:	68 14 00 00 00       	push   $0x14
  400c1b:	e9 a0 fe ff ff       	jmp    400ac0 <.plt>

0000000000400c20 <gethostname@plt>:
  400c20:	ff 25 9a 34 20 00    	jmp    *0x20349a(%rip)        # 6040c0 <gethostname@GLIBC_2.2.5>
  400c26:	68 15 00 00 00       	push   $0x15
  400c2b:	e9 90 fe ff ff       	jmp    400ac0 <.plt>

0000000000400c30 <sprintf@plt>:
  400c30:	ff 25 92 34 20 00    	jmp    *0x203492(%rip)        # 6040c8 <sprintf@GLIBC_2.2.5>
  400c36:	68 16 00 00 00       	push   $0x16
  400c3b:	e9 80 fe ff ff       	jmp    400ac0 <.plt>

0000000000400c40 <exit@plt>:
  400c40:	ff 25 8a 34 20 00    	jmp    *0x20348a(%rip)        # 6040d0 <exit@GLIBC_2.2.5>
  400c46:	68 17 00 00 00       	push   $0x17
  400c4b:	e9 70 fe ff ff       	jmp    400ac0 <.plt>

0000000000400c50 <connect@plt>:
  400c50:	ff 25 82 34 20 00    	jmp    *0x203482(%rip)        # 6040d8 <connect@GLIBC_2.2.5>
  400c56:	68 18 00 00 00       	push   $0x18
  400c5b:	e9 60 fe ff ff       	jmp    400ac0 <.plt>

0000000000400c60 <sleep@plt>:
  400c60:	ff 25 7a 34 20 00    	jmp    *0x20347a(%rip)        # 6040e0 <sleep@GLIBC_2.2.5>
  400c66:	68 19 00 00 00       	push   $0x19
  400c6b:	e9 50 fe ff ff       	jmp    400ac0 <.plt>

0000000000400c70 <__ctype_b_loc@plt>:
  400c70:	ff 25 72 34 20 00    	jmp    *0x203472(%rip)        # 6040e8 <__ctype_b_loc@GLIBC_2.3>
  400c76:	68 1a 00 00 00       	push   $0x1a
  400c7b:	e9 40 fe ff ff       	jmp    400ac0 <.plt>

0000000000400c80 <socket@plt>:
  400c80:	ff 25 6a 34 20 00    	jmp    *0x20346a(%rip)        # 6040f0 <socket@GLIBC_2.2.5>
  400c86:	68 1b 00 00 00       	push   $0x1b
  400c8b:	e9 30 fe ff ff       	jmp    400ac0 <.plt>

Disassembly of section .text:

0000000000400c90 <_start>:
  400c90:	31 ed                	xor    %ebp,%ebp
  400c92:	49 89 d1             	mov    %rdx,%r9
  400c95:	5e                   	pop    %rsi
  400c96:	48 89 e2             	mov    %rsp,%rdx
  400c99:	48 83 e4 f0          	and    $0xfffffffffffffff0,%rsp
  400c9d:	50                   	push   %rax
  400c9e:	54                   	push   %rsp
  400c9f:	49 c7 c0 10 29 40 00 	mov    $0x402910,%r8
  400ca6:	48 c7 c1 a0 28 40 00 	mov    $0x4028a0,%rcx
  400cad:	48 c7 c7 7d 0d 40 00 	mov    $0x400d7d,%rdi
  400cb4:	e8 b7 fe ff ff       	call   400b70 <__libc_start_main@plt>
  400cb9:	f4                   	hlt    
  400cba:	66 0f 1f 44 00 00    	nopw   0x0(%rax,%rax,1)

0000000000400cc0 <deregister_tm_clones>:
  400cc0:	b8 07 46 60 00       	mov    $0x604607,%eax
  400cc5:	55                   	push   %rbp
  400cc6:	48 2d 00 46 60 00    	sub    $0x604600,%rax
  400ccc:	48 83 f8 0e          	cmp    $0xe,%rax
  400cd0:	48 89 e5             	mov    %rsp,%rbp
  400cd3:	77 02                	ja     400cd7 <deregister_tm_clones+0x17>
  400cd5:	5d                   	pop    %rbp
  400cd6:	c3                   	ret    
  400cd7:	b8 00 00 00 00       	mov    $0x0,%eax
  400cdc:	48 85 c0             	test   %rax,%rax
  400cdf:	74 f4                	je     400cd5 <deregister_tm_clones+0x15>
  400ce1:	5d                   	pop    %rbp
  400ce2:	bf 00 46 60 00       	mov    $0x604600,%edi
  400ce7:	ff e0                	jmp    *%rax
  400ce9:	0f 1f 80 00 00 00 00 	nopl   0x0(%rax)

0000000000400cf0 <register_tm_clones>:
  400cf0:	b8 00 46 60 00       	mov    $0x604600,%eax
  400cf5:	55                   	push   %rbp
  400cf6:	48 2d 00 46 60 00    	sub    $0x604600,%rax
  400cfc:	48 c1 f8 03          	sar    $0x3,%rax
  400d00:	48 89 e5             	mov    %rsp,%rbp
  400d03:	48 89 c2             	mov    %rax,%rdx
  400d06:	48 c1 ea 3f          	shr    $0x3f,%rdx
  400d0a:	48 01 d0             	add    %rdx,%rax
  400d0d:	48 d1 f8             	sar    %rax
  400d10:	75 02                	jne    400d14 <register_tm_clones+0x24>
  400d12:	5d                   	pop    %rbp
  400d13:	c3                   	ret    
  400d14:	ba 00 00 00 00       	mov    $0x0,%edx
  400d19:	48 85 d2             	test   %rdx,%rdx
  400d1c:	74 f4                	je     400d12 <register_tm_clones+0x22>
  400d1e:	5d                   	pop    %rbp
  400d1f:	48 89 c6             	mov    %rax,%rsi
  400d22:	bf 00 46 60 00       	mov    $0x604600,%edi
  400d27:	ff e2                	jmp    *%rdx
  400d29:	0f 1f 80 00 00 00 00 	nopl   0x0(%rax)

0000000000400d30 <__do_global_dtors_aux>:
  400d30:	80 3d e1 38 20 00 00 	cmpb   $0x0,0x2038e1(%rip)        # 604618 <completed.6355>
  400d37:	75 11                	jne    400d4a <__do_global_dtors_aux+0x1a>
  400d39:	55                   	push   %rbp
  400d3a:	48 89 e5             	mov    %rsp,%rbp
  400d3d:	e8 7e ff ff ff       	call   400cc0 <deregister_tm_clones>
  400d42:	5d                   	pop    %rbp
  400d43:	c6 05 ce 38 20 00 01 	movb   $0x1,0x2038ce(%rip)        # 604618 <completed.6355>
  400d4a:	f3 c3                	repz ret 
  400d4c:	0f 1f 40 00          	nopl   0x0(%rax)

0000000000400d50 <frame_dummy>:
  400d50:	48 83 3d c8 30 20 00 	cmpq   $0x0,0x2030c8(%rip)        # 603e20 <__JCR_END__>
  400d57:	00 
  400d58:	74 1e                	je     400d78 <frame_dummy+0x28>
  400d5a:	b8 00 00 00 00       	mov    $0x0,%eax
  400d5f:	48 85 c0             	test   %rax,%rax
  400d62:	74 14                	je     400d78 <frame_dummy+0x28>
  400d64:	55                   	push   %rbp
  400d65:	bf 20 3e 60 00       	mov    $0x603e20,%edi
  400d6a:	48 89 e5             	mov    %rsp,%rbp
  400d6d:	ff d0                	call   *%rax
  400d6f:	5d                   	pop    %rbp
  400d70:	e9 7b ff ff ff       	jmp    400cf0 <register_tm_clones>
  400d75:	0f 1f 00             	nopl   (%rax)
  400d78:	e9 73 ff ff ff       	jmp    400cf0 <register_tm_clones>

0000000000400d7d <main>:
  400d7d:	55                   	push   %rbp
  400d7e:	53                   	push   %rbx
  400d7f:	48 83 ec 08          	sub    $0x8,%rsp
  400d83:	89 fb                	mov    %edi,%ebx
  400d85:	83 ff 01             	cmp    $0x1,%edi
  400d88:	75 10                	jne    400d9a <main+0x1d>
  400d8a:	48 8b 05 77 38 20 00 	mov    0x203877(%rip),%rax        # 604608 <stdin@@GLIBC_2.2.5>
  400d91:	48 89 05 90 38 20 00 	mov    %rax,0x203890(%rip)        # 604628 <infile>
  400d98:	eb 5a                	jmp    400df4 <main+0x77>
  400d9a:	48 89 f5             	mov    %rsi,%rbp
  400d9d:	83 ff 02             	cmp    $0x2,%edi
  400da0:	75 36                	jne    400dd8 <main+0x5b>
  400da2:	48 8b 7e 08          	mov    0x8(%rsi),%rdi
  400da6:	be 30 29 40 00       	mov    $0x402930,%esi
  400dab:	e8 60 fe ff ff       	call   400c10 <fopen@plt>
  400db0:	48 89 05 71 38 20 00 	mov    %rax,0x203871(%rip)        # 604628 <infile>
  400db7:	48 85 c0             	test   %rax,%rax
  400dba:	75 38                	jne    400df4 <main+0x77>
  400dbc:	48 8b 55 08          	mov    0x8(%rbp),%rdx
  400dc0:	48 8b 75 00          	mov    0x0(%rbp),%rsi
  400dc4:	bf 32 29 40 00       	mov    $0x402932,%edi
  400dc9:	e8 62 fd ff ff       	call   400b30 <printf@plt>
  400dce:	bf 08 00 00 00       	mov    $0x8,%edi
  400dd3:	e8 68 fe ff ff       	call   400c40 <exit@plt>
  400dd8:	48 8b 36             	mov    (%rsi),%rsi
  400ddb:	bf 4f 29 40 00       	mov    $0x40294f,%edi
  400de0:	b8 00 00 00 00       	mov    $0x0,%eax
  400de5:	e8 46 fd ff ff       	call   400b30 <printf@plt>
  400dea:	bf 08 00 00 00       	mov    $0x8,%edi
  400def:	e8 4c fe ff ff       	call   400c40 <exit@plt>
  400df4:	e8 31 05 00 00       	call   40132a <initialize_bomb>
  400df9:	89 df                	mov    %ebx,%edi
  400dfb:	b8 00 00 00 00       	mov    $0x0,%eax
  400e00:	e8 e6 05 00 00       	call   4013eb <welcome_message>
  400e05:	e8 12 0e 00 00       	call   401c1c <read_line> //rax = 1
  400e0a:	48 89 c7             	mov    %rax,%rdi
  400e0d:	e8 ae 00 00 00       	call   400ec0 <phase_1> //input to %rdi
  400e12:	e8 cb 07 00 00       	call   4015e2 <phase_defused>
  400e17:	bf 88 29 40 00       	mov    $0x402988,%edi
  400e1c:	e8 ef fc ff ff       	call   400b10 <puts@plt>
  400e21:	e8 f6 0d 00 00       	call   401c1c <read_line>
  400e26:	48 89 c7             	mov    %rax,%rdi
  400e29:	e8 00 01 00 00       	call   400f2e <phase_2>
  400e2e:	e8 af 07 00 00       	call   4015e2 <phase_defused>
  400e33:	bf c8 29 40 00       	mov    $0x4029c8,%edi
  400e38:	e8 d3 fc ff ff       	call   400b10 <puts@plt>
  400e3d:	e8 da 0d 00 00       	call   401c1c <read_line>
  400e42:	48 89 c7             	mov    %rax,%rdi
  400e45:	e8 3a 01 00 00       	call   400f84 <phase_3>
  400e4a:	e8 93 07 00 00       	call   4015e2 <phase_defused>
  400e4f:	bf f0 29 40 00       	mov    $0x4029f0,%edi
  400e54:	e8 b7 fc ff ff       	call   400b10 <puts@plt>
  400e59:	e8 be 0d 00 00       	call   401c1c <read_line>
  400e5e:	48 89 c7             	mov    %rax,%rdi
  400e61:	e8 69 01 00 00       	call   400fcf <phase_4>
  400e66:	e8 77 07 00 00       	call   4015e2 <phase_defused>
  400e6b:	bf 18 2a 40 00       	mov    $0x402a18,%edi
  400e70:	e8 9b fc ff ff       	call   400b10 <puts@plt>
  400e75:	e8 a2 0d 00 00       	call   401c1c <read_line>
  400e7a:	48 89 c7             	mov    %rax,%rdi
  400e7d:	e8 e7 01 00 00       	call   401069 <phase_5>
  400e82:	e8 5b 07 00 00       	call   4015e2 <phase_defused>
  400e87:	bf 50 2a 40 00       	mov    $0x402a50,%edi
  400e8c:	e8 7f fc ff ff       	call   400b10 <puts@plt>
  400e91:	e8 86 0d 00 00       	call   401c1c <read_line>
  400e96:	48 89 c7             	mov    %rax,%rdi
  400e99:	e8 13 02 00 00       	call   4010b1 <phase_6>
  400e9e:	e8 3f 07 00 00       	call   4015e2 <phase_defused>
  400ea3:	bf 69 29 40 00       	mov    $0x402969,%edi
  400ea8:	e8 63 fc ff ff       	call   400b10 <puts@plt>
  400ead:	b8 00 00 00 00       	mov    $0x0,%eax
  400eb2:	48 83 c4 08          	add    $0x8,%rsp
  400eb6:	5b                   	pop    %rbx
  400eb7:	5d                   	pop    %rbp
  400eb8:	c3                   	ret    
  400eb9:	0f 1f 80 00 00 00 00 	nopl   0x0(%rax)

0000000000400ec0 <phase_1>: //rdi = -1, rbx = 102
  400ec0:	53                   	push   %rbx //rdi = input
  400ec1:	48 89 fb             	mov    %rdi,%rbx //rbx = rdi
  400ec4:	80 7f 01 00          	cmpb   $0x0,0x1(%rdi)
  400ec8:	74 05                	je     400ecf <phase_1+0xf>
  400eca:	e8 4c 07 00 00       	call   40161b <explode_bomb>
  400ecf:	80 3b 66             	cmpb   $0x66,(%rbx)
  400ed2:	74 05                	je     400ed9 <phase_1+0x19>
  400ed4:	e8 42 07 00 00       	call   40161b <explode_bomb>
  400ed9:	5b                   	pop    %rbx
  400eda:	c3                   	ret    

0000000000400edb <func_switch>:
  400edb:	83 ff 07             	cmp    $0x7,%edi //edi <= 7
  400ede:	77 33                	ja     400f13 <func_switch+0x38>
  400ee0:	89 ff                	mov    %edi,%edi
  400ee2:	ff 24 fd 80 2a 40 00 	jmp    *0x402a80(,%rdi,8)
  400ee9:	b8 27 02 00 00       	mov    $0x227,%eax
  400eee:	c3                   	ret    
  400eef:	b8 fa 02 00 00       	mov    $0x2fa,%eax
  400ef4:	c3                   	ret    
  400ef5:	b8 aa 02 00 00       	mov    $0x2aa,%eax
  400efa:	c3                   	ret    
  400efb:	b8 96 02 00 00       	mov    $0x296,%eax
  400f00:	c3                   	ret    
  400f01:	b8 8e 00 00 00       	mov    $0x8e,%eax
  400f06:	c3                   	ret    
  400f07:	b8 10 02 00 00       	mov    $0x210,%eax
  400f0c:	c3                   	ret    
  400f0d:	b8 96 02 00 00       	mov    $0x296,%eax
  400f12:	c3                   	ret    
  400f13:	48 83 ec 08          	sub    $0x8,%rsp
  400f17:	e8 ff 06 00 00       	call   40161b <explode_bomb>
  400f1c:	b8 00 00 00 00       	mov    $0x0,%eax
  400f21:	eb 06                	jmp    400f29 <func_switch+0x4e>
  400f23:	b8 4b 01 00 00       	mov    $0x14b,%eax
  400f28:	c3                   	ret    
  400f29:	48 83 c4 08          	add    $0x8,%rsp
  400f2d:	c3                   	ret    

0000000000400f2e <phase_2>:
  400f2e:	53                   	push   %rbx //rdi is input
  400f2f:	48 83 ec 10          	sub    $0x10,%rsp //rsp - 16
  400f33:	c7 44 24 0c 00 00 00 	movl   $0x0,0xc(%rsp) //0 -> *(rsp + 12)
  400f3a:	00 
  400f3b:	c7 44 24 08 00 00 00 	movl   $0x0,0x8(%rsp) //0 -> *(rsp + 8)
  400f42:	00 
  400f43:	48 8d 54 24 08       	lea    0x8(%rsp),%rdx //rdx = rsp + 8
  400f48:	48 8d 74 24 0c       	lea    0xc(%rsp),%rsi //rsi = rsp + 12
  400f4d:	e8 a2 0c 00 00       	call   401bf4 <read_two_numbers> //ascii numbers -> decimal, first one in rsp + c, second in rsp + 8
  400f52:	8b 44 24 08          	mov    0x8(%rsp),%eax //eax = rsp + 8
  400f56:	39 44 24 0c          	cmp    %eax,0xc(%rsp) //rsp + 12 != rsp + 8
  400f5a:	75 05                	jne    400f61 <phase_2+0x33>
  400f5c:	e8 ba 06 00 00       	call   40161b <explode_bomb>
  400f61:	8b 7c 24 0c          	mov    0xc(%rsp),%edi //edi -> *(rsp + c)
  400f65:	e8 71 ff ff ff       	call   400edb <func_switch>
  400f6a:	89 c3                	mov    %eax,%ebx
  400f6c:	8b 7c 24 08          	mov    0x8(%rsp),%edi //edi -> *(rsp + 8)
  400f70:	e8 66 ff ff ff       	call   400edb <func_switch>
  400f75:	39 c3                	cmp    %eax,%ebx
  400f77:	74 05                	je     400f7e <phase_2+0x50>
  400f79:	e8 9d 06 00 00       	call   40161b <explode_bomb>
  400f7e:	48 83 c4 10          	add    $0x10,%rsp
  400f82:	5b                   	pop    %rbx
  400f83:	c3                   	ret    

0000000000400f84 <phase_3>:
  400f84:	55                   	push   %rbp
  400f85:	53                   	push   %rbx
  400f86:	48 83 ec 28          	sub    $0x28,%rsp
  400f8a:	48 89 e6             	mov    %rsp,%rsi
  400f8d:	e8 20 0c 00 00       	call   401bb2 <read_six_numbers>
  400f92:	83 3c 24 00          	cmpl   $0x0,(%rsp)
  400f96:	79 05                	jns    400f9d <phase_3+0x19>
  400f98:	e8 7e 06 00 00       	call   40161b <explode_bomb>
  400f9d:	8b 04 24             	mov    (%rsp),%eax
  400fa0:	bb 01 00 00 00       	mov    $0x1,%ebx
  400fa5:	eb 16                	jmp    400fbd <phase_3+0x39>
  400fa7:	48 63 d3             	movslq %ebx,%rdx
  400faa:	8b 2c 94             	mov    (%rsp,%rdx,4),%ebp
  400fad:	01 d8                	add    %ebx,%eax
  400faf:	39 e8                	cmp    %ebp,%eax
  400fb1:	74 05                	je     400fb8 <phase_3+0x34>
  400fb3:	e8 63 06 00 00       	call   40161b <explode_bomb>
  400fb8:	83 c3 01             	add    $0x1,%ebx
  400fbb:	89 e8                	mov    %ebp,%eax
  400fbd:	83 fb 05             	cmp    $0x5,%ebx
  400fc0:	7e e5                	jle    400fa7 <phase_3+0x23>
  400fc2:	89 05 54 36 20 00    	mov    %eax,0x203654(%rip)        # 60461c <last>
  400fc8:	48 83 c4 28          	add    $0x28,%rsp
  400fcc:	5b                   	pop    %rbx
  400fcd:	5d                   	pop    %rbp
  400fce:	c3                   	ret    

0000000000400fcf <phase_4>:
  400fcf:	53                   	push   %rbx
  400fd0:	48 83 ec 10          	sub    $0x10,%rsp
  400fd4:	48 89 fb             	mov    %rdi,%rbx
  400fd7:	e8 e5 02 00 00       	call   4012c1 <string_length>
  400fdc:	83 f8 06             	cmp    $0x6,%eax
  400fdf:	74 05                	je     400fe6 <phase_4+0x17>
  400fe1:	e8 35 06 00 00       	call   40161b <explode_bomb>
  400fe6:	b8 00 00 00 00       	mov    $0x0,%eax
  400feb:	eb 17                	jmp    401004 <phase_4+0x35>
  400fed:	48 63 d0             	movslq %eax,%rdx
  400ff0:	0f b6 0c 13          	movzbl (%rbx,%rdx,1),%ecx
  400ff4:	83 e1 0f             	and    $0xf,%ecx
  400ff7:	0f b6 89 c0 2a 40 00 	movzbl 0x402ac0(%rcx),%ecx
  400ffe:	88 0c 14             	mov    %cl,(%rsp,%rdx,1)
  401001:	83 c0 01             	add    $0x1,%eax
  401004:	83 f8 05             	cmp    $0x5,%eax
  401007:	7e e4                	jle    400fed <phase_4+0x1e>
  401009:	c6 44 24 06 00       	movb   $0x0,0x6(%rsp)
  40100e:	be d0 2a 40 00       	mov    $0x402ad0,%esi
  401013:	48 89 e7             	mov    %rsp,%rdi
  401016:	e8 c2 02 00 00       	call   4012dd <strings_not_equal>
  40101b:	85 c0                	test   %eax,%eax
  40101d:	74 05                	je     401024 <phase_4+0x55>
  40101f:	e8 f7 05 00 00       	call   40161b <explode_bomb>
  401024:	48 83 c4 10          	add    $0x10,%rsp
  401028:	5b                   	pop    %rbx
  401029:	c3                   	ret    

000000000040102a <func_rec>:
  40102a:	48 83 ec 08          	sub    $0x8,%rsp
  40102e:	89 d0                	mov    %edx,%eax
  401030:	29 f0                	sub    %esi,%eax
  401032:	89 c1                	mov    %eax,%ecx
  401034:	c1 e9 1f             	shr    $0x1f,%ecx
  401037:	01 c8                	add    %ecx,%eax
  401039:	d1 f8                	sar    %eax
  40103b:	01 f0                	add    %esi,%eax
  40103d:	39 f8                	cmp    %edi,%eax
  40103f:	7e 0c                	jle    40104d <func_rec+0x23>
  401041:	8d 50 ff             	lea    -0x1(%rax),%edx
  401044:	e8 e1 ff ff ff       	call   40102a <func_rec>
  401049:	01 c0                	add    %eax,%eax
  40104b:	eb 17                	jmp    401064 <func_rec+0x3a>
  40104d:	39 f8                	cmp    %edi,%eax
  40104f:	7d 0e                	jge    40105f <func_rec+0x35>
  401051:	8d 70 01             	lea    0x1(%rax),%esi
  401054:	e8 d1 ff ff ff       	call   40102a <func_rec>
  401059:	8d 44 00 01          	lea    0x1(%rax,%rax,1),%eax
  40105d:	eb 05                	jmp    401064 <func_rec+0x3a>
  40105f:	b8 00 00 00 00       	mov    $0x0,%eax
  401064:	48 83 c4 08          	add    $0x8,%rsp
  401068:	c3                   	ret    

0000000000401069 <phase_5>:
  401069:	48 83 ec 18          	sub    $0x18,%rsp
  40106d:	48 8d 54 24 08       	lea    0x8(%rsp),%rdx
  401072:	48 8d 74 24 0c       	lea    0xc(%rsp),%rsi
  401077:	e8 78 0b 00 00       	call   401bf4 <read_two_numbers>
  40107c:	83 7c 24 0c 0e       	cmpl   $0xe,0xc(%rsp)
  401081:	76 05                	jbe    401088 <phase_5+0x1f>
  401083:	e8 93 05 00 00       	call   40161b <explode_bomb>
  401088:	ba 0e 00 00 00       	mov    $0xe,%edx
  40108d:	be 00 00 00 00       	mov    $0x0,%esi
  401092:	8b 7c 24 0c          	mov    0xc(%rsp),%edi
  401096:	e8 8f ff ff ff       	call   40102a <func_rec>
  40109b:	83 f8 03             	cmp    $0x3,%eax
  40109e:	75 07                	jne    4010a7 <phase_5+0x3e>
  4010a0:	83 7c 24 08 03       	cmpl   $0x3,0x8(%rsp)
  4010a5:	74 05                	je     4010ac <phase_5+0x43>
  4010a7:	e8 6f 05 00 00       	call   40161b <explode_bomb>
  4010ac:	48 83 c4 18          	add    $0x18,%rsp
  4010b0:	c3                   	ret    

00000000004010b1 <phase_6>:
  4010b1:	41 54                	push   %r12
  4010b3:	55                   	push   %rbp
  4010b4:	53                   	push   %rbx
  4010b5:	48 83 ec 50          	sub    $0x50,%rsp
  4010b9:	48 8d 74 24 30       	lea    0x30(%rsp),%rsi
  4010be:	e8 ef 0a 00 00       	call   401bb2 <read_six_numbers>
  4010c3:	bd 00 00 00 00       	mov    $0x0,%ebp
  4010c8:	eb 3d                	jmp    401107 <phase_6+0x56>
  4010ca:	48 63 c5             	movslq %ebp,%rax
  4010cd:	8b 44 84 30          	mov    0x30(%rsp,%rax,4),%eax
  4010d1:	83 e8 01             	sub    $0x1,%eax
  4010d4:	83 f8 05             	cmp    $0x5,%eax
  4010d7:	76 05                	jbe    4010de <phase_6+0x2d>
  4010d9:	e8 3d 05 00 00       	call   40161b <explode_bomb>
  4010de:	44 8d 65 01          	lea    0x1(%rbp),%r12d
  4010e2:	44 89 e3             	mov    %r12d,%ebx
  4010e5:	48 63 ed             	movslq %ebp,%rbp
  4010e8:	eb 15                	jmp    4010ff <phase_6+0x4e>
  4010ea:	48 63 c3             	movslq %ebx,%rax
  4010ed:	8b 44 84 30          	mov    0x30(%rsp,%rax,4),%eax
  4010f1:	39 44 ac 30          	cmp    %eax,0x30(%rsp,%rbp,4)
  4010f5:	75 05                	jne    4010fc <phase_6+0x4b>
  4010f7:	e8 1f 05 00 00       	call   40161b <explode_bomb>
  4010fc:	83 c3 01             	add    $0x1,%ebx
  4010ff:	83 fb 05             	cmp    $0x5,%ebx
  401102:	7e e6                	jle    4010ea <phase_6+0x39>
  401104:	44 89 e5             	mov    %r12d,%ebp
  401107:	83 fd 05             	cmp    $0x5,%ebp
  40110a:	7e be                	jle    4010ca <phase_6+0x19>
  40110c:	be 00 00 00 00       	mov    $0x0,%esi
  401111:	eb 26                	jmp    401139 <phase_6+0x88>
  401113:	48 8b 52 08          	mov    0x8(%rdx),%rdx
  401117:	83 c0 01             	add    $0x1,%eax
  40111a:	eb 0d                	jmp    401129 <phase_6+0x78>
  40111c:	b8 01 00 00 00       	mov    $0x1,%eax
  401121:	ba 60 41 60 00       	mov    $0x604160,%edx
  401126:	48 63 ce             	movslq %esi,%rcx
  401129:	39 44 8c 30          	cmp    %eax,0x30(%rsp,%rcx,4)
  40112d:	7f e4                	jg     401113 <phase_6+0x62>
  40112f:	48 63 c6             	movslq %esi,%rax
  401132:	48 89 14 c4          	mov    %rdx,(%rsp,%rax,8)
  401136:	83 c6 01             	add    $0x1,%esi
  401139:	83 fe 05             	cmp    $0x5,%esi
  40113c:	7e de                	jle    40111c <phase_6+0x6b>
  40113e:	48 8b 1c 24          	mov    (%rsp),%rbx
  401142:	48 89 d9             	mov    %rbx,%rcx
  401145:	b8 01 00 00 00       	mov    $0x1,%eax
  40114a:	eb 11                	jmp    40115d <phase_6+0xac>
  40114c:	48 63 d0             	movslq %eax,%rdx
  40114f:	48 8b 14 d4          	mov    (%rsp,%rdx,8),%rdx
  401153:	48 89 51 08          	mov    %rdx,0x8(%rcx)
  401157:	83 c0 01             	add    $0x1,%eax
  40115a:	48 89 d1             	mov    %rdx,%rcx
  40115d:	83 f8 05             	cmp    $0x5,%eax
  401160:	7e ea                	jle    40114c <phase_6+0x9b>
  401162:	48 c7 41 08 00 00 00 	movq   $0x0,0x8(%rcx)
  401169:	00 
  40116a:	bd 00 00 00 00       	mov    $0x0,%ebp
  40116f:	eb 16                	jmp    401187 <phase_6+0xd6>
  401171:	48 8b 43 08          	mov    0x8(%rbx),%rax
  401175:	8b 00                	mov    (%rax),%eax
  401177:	39 03                	cmp    %eax,(%rbx)
  401179:	7d 05                	jge    401180 <phase_6+0xcf>
  40117b:	e8 9b 04 00 00       	call   40161b <explode_bomb>
  401180:	48 8b 5b 08          	mov    0x8(%rbx),%rbx
  401184:	83 c5 01             	add    $0x1,%ebp
  401187:	83 fd 04             	cmp    $0x4,%ebp
  40118a:	7e e5                	jle    401171 <phase_6+0xc0>
  40118c:	8b 05 8a 34 20 00    	mov    0x20348a(%rip),%eax        # 60461c <last>
  401192:	83 f8 21             	cmp    $0x21,%eax
  401195:	75 05                	jne    40119c <phase_6+0xeb>
  401197:	e8 7f 04 00 00       	call   40161b <explode_bomb>
  40119c:	48 83 c4 50          	add    $0x50,%rsp
  4011a0:	5b                   	pop    %rbx
  4011a1:	5d                   	pop    %rbp
  4011a2:	41 5c                	pop    %r12
  4011a4:	c3                   	ret    

00000000004011a5 <s3cret_ph4se>:
  4011a5:	41 56                	push   %r14
  4011a7:	41 55                	push   %r13
  4011a9:	41 54                	push   %r12
  4011ab:	55                   	push   %rbp
  4011ac:	53                   	push   %rbx
  4011ad:	e8 6a 0a 00 00       	call   401c1c <read_line>
  4011b2:	49 89 c5             	mov    %rax,%r13
  4011b5:	bd 01 00 00 00       	mov    $0x1,%ebp
  4011ba:	41 bc 01 00 00 00    	mov    $0x1,%r12d
  4011c0:	ba 00 00 00 00       	mov    $0x0,%edx
  4011c5:	eb 6d                	jmp    401234 <s3cret_ph4se+0x8f>
  4011c7:	8d 5a 01             	lea    0x1(%rdx),%ebx
  4011ca:	48 63 d2             	movslq %edx,%rdx
  4011cd:	41 0f b6 54 15 00    	movzbl 0x0(%r13,%rdx,1),%edx
  4011d3:	80 fa 68             	cmp    $0x68,%dl
  4011d6:	75 05                	jne    4011dd <s3cret_ph4se+0x38>
  4011d8:	83 ed 01             	sub    $0x1,%ebp
  4011db:	eb 25                	jmp    401202 <s3cret_ph4se+0x5d>
  4011dd:	80 fa 6e             	cmp    $0x6e,%dl
  4011e0:	75 06                	jne    4011e8 <s3cret_ph4se+0x43>
  4011e2:	41 83 ec 01          	sub    $0x1,%r12d
  4011e6:	eb 1a                	jmp    401202 <s3cret_ph4se+0x5d>
  4011e8:	80 fa 61             	cmp    $0x61,%dl
  4011eb:	75 05                	jne    4011f2 <s3cret_ph4se+0x4d>
  4011ed:	83 c5 01             	add    $0x1,%ebp
  4011f0:	eb 10                	jmp    401202 <s3cret_ph4se+0x5d>
  4011f2:	80 fa 7a             	cmp    $0x7a,%dl
  4011f5:	75 06                	jne    4011fd <s3cret_ph4se+0x58>
  4011f7:	41 83 c4 01          	add    $0x1,%r12d
  4011fb:	eb 05                	jmp    401202 <s3cret_ph4se+0x5d>
  4011fd:	e8 19 04 00 00       	call   40161b <explode_bomb>
  401202:	44 89 e0             	mov    %r12d,%eax
  401205:	89 ea                	mov    %ebp,%edx
  401207:	44 0f b6 b4 d0 20 41 	movzbl 0x604120(%rax,%rdx,8),%r14d
  40120e:	60 00 
  401210:	41 80 fe ff          	cmp    $0xff,%r14b
  401214:	75 05                	jne    40121b <s3cret_ph4se+0x76>
  401216:	e8 00 04 00 00       	call   40161b <explode_bomb>
  40121b:	41 80 fe 21          	cmp    $0x21,%r14b
  40121f:	75 11                	jne    401232 <s3cret_ph4se+0x8d>
  401221:	bf d8 2a 40 00       	mov    $0x402ad8,%edi
  401226:	e8 e5 f8 ff ff       	call   400b10 <puts@plt>
  40122b:	e8 b2 03 00 00       	call   4015e2 <phase_defused>
  401230:	eb 0c                	jmp    40123e <s3cret_ph4se+0x99>
  401232:	89 da                	mov    %ebx,%edx
  401234:	83 fa 63             	cmp    $0x63,%edx
  401237:	7e 8e                	jle    4011c7 <s3cret_ph4se+0x22>
  401239:	e8 dd 03 00 00       	call   40161b <explode_bomb>
  40123e:	5b                   	pop    %rbx
  40123f:	5d                   	pop    %rbp
  401240:	41 5c                	pop    %r12
  401242:	41 5d                	pop    %r13
  401244:	41 5e                	pop    %r14
  401246:	c3                   	ret    
  401247:	66 0f 1f 84 00 00 00 	nopw   0x0(%rax,%rax,1)
  40124e:	00 00 

0000000000401250 <sig_handler>:
  401250:	48 83 ec 08          	sub    $0x8,%rsp
  401254:	bf 00 2b 40 00       	mov    $0x402b00,%edi
  401259:	e8 b2 f8 ff ff       	call   400b10 <puts@plt>
  40125e:	bf 03 00 00 00       	mov    $0x3,%edi
  401263:	e8 f8 f9 ff ff       	call   400c60 <sleep@plt>
  401268:	bf 83 30 40 00       	mov    $0x403083,%edi
  40126d:	b8 00 00 00 00       	mov    $0x0,%eax
  401272:	e8 b9 f8 ff ff       	call   400b30 <printf@plt>
  401277:	48 8b 3d 82 33 20 00 	mov    0x203382(%rip),%rdi        # 604600 <stdout@@GLIBC_2.2.5>
  40127e:	e8 5d f9 ff ff       	call   400be0 <fflush@plt>
  401283:	bf 01 00 00 00       	mov    $0x1,%edi
  401288:	e8 d3 f9 ff ff       	call   400c60 <sleep@plt>
  40128d:	bf 8b 30 40 00       	mov    $0x40308b,%edi
  401292:	e8 79 f8 ff ff       	call   400b10 <puts@plt>
  401297:	bf 10 00 00 00       	mov    $0x10,%edi
  40129c:	e8 9f f9 ff ff       	call   400c40 <exit@plt>

00000000004012a1 <invalid_phase>:
  4012a1:	48 83 ec 08          	sub    $0x8,%rsp
  4012a5:	48 89 fe             	mov    %rdi,%rsi
  4012a8:	bf 93 30 40 00       	mov    $0x403093,%edi
  4012ad:	b8 00 00 00 00       	mov    $0x0,%eax
  4012b2:	e8 79 f8 ff ff       	call   400b30 <printf@plt>
  4012b7:	bf 08 00 00 00       	mov    $0x8,%edi
  4012bc:	e8 7f f9 ff ff       	call   400c40 <exit@plt>

00000000004012c1 <string_length>:
  4012c1:	b8 00 00 00 00       	mov    $0x0,%eax
  4012c6:	eb 0e                	jmp    4012d6 <string_length+0x15>
  4012c8:	48 83 c7 01          	add    $0x1,%rdi
  4012cc:	83 c0 01             	add    $0x1,%eax
  4012cf:	3d 0f 27 00 00       	cmp    $0x270f,%eax
  4012d4:	7f 05                	jg     4012db <string_length+0x1a>
  4012d6:	80 3f 00             	cmpb   $0x0,(%rdi)
  4012d9:	75 ed                	jne    4012c8 <string_length+0x7>
  4012db:	f3 c3                	repz ret 

00000000004012dd <strings_not_equal>:
  4012dd:	41 54                	push   %r12
  4012df:	55                   	push   %rbp
  4012e0:	53                   	push   %rbx
  4012e1:	48 89 fb             	mov    %rdi,%rbx
  4012e4:	48 89 f5             	mov    %rsi,%rbp
  4012e7:	e8 d5 ff ff ff       	call   4012c1 <string_length>
  4012ec:	41 89 c4             	mov    %eax,%r12d
  4012ef:	48 89 ef             	mov    %rbp,%rdi
  4012f2:	e8 ca ff ff ff       	call   4012c1 <string_length>
  4012f7:	41 39 c4             	cmp    %eax,%r12d
  4012fa:	75 1d                	jne    401319 <strings_not_equal+0x3c>
  4012fc:	eb 0d                	jmp    40130b <strings_not_equal+0x2e>
  4012fe:	3a 45 00             	cmp    0x0(%rbp),%al
  401301:	75 1d                	jne    401320 <strings_not_equal+0x43>
  401303:	48 83 c3 01          	add    $0x1,%rbx
  401307:	48 83 c5 01          	add    $0x1,%rbp
  40130b:	0f b6 03             	movzbl (%rbx),%eax
  40130e:	84 c0                	test   %al,%al
  401310:	75 ec                	jne    4012fe <strings_not_equal+0x21>
  401312:	b8 00 00 00 00       	mov    $0x0,%eax
  401317:	eb 0c                	jmp    401325 <strings_not_equal+0x48>
  401319:	b8 01 00 00 00       	mov    $0x1,%eax
  40131e:	eb 05                	jmp    401325 <strings_not_equal+0x48>
  401320:	b8 01 00 00 00       	mov    $0x1,%eax
  401325:	5b                   	pop    %rbx
  401326:	5d                   	pop    %rbp
  401327:	41 5c                	pop    %r12
  401329:	c3                   	ret    

000000000040132a <initialize_bomb>:
  40132a:	53                   	push   %rbx
  40132b:	48 81 ec 40 20 00 00 	sub    $0x2040,%rsp
  401332:	be 50 12 40 00       	mov    $0x401250,%esi
  401337:	bf 02 00 00 00       	mov    $0x2,%edi
  40133c:	e8 4f f8 ff ff       	call   400b90 <signal@plt>
  401341:	be 40 00 00 00       	mov    $0x40,%esi
  401346:	48 8d bc 24 00 20 00 	lea    0x2000(%rsp),%rdi
  40134d:	00 
  40134e:	e8 cd f8 ff ff       	call   400c20 <gethostname@plt>
  401353:	85 c0                	test   %eax,%eax
  401355:	74 2a                	je     401381 <initialize_bomb+0x57>
  401357:	bf 38 2b 40 00       	mov    $0x402b38,%edi
  40135c:	e8 af f7 ff ff       	call   400b10 <puts@plt>
  401361:	bf 08 00 00 00       	mov    $0x8,%edi
  401366:	e8 d5 f8 ff ff       	call   400c40 <exit@plt>
  40136b:	48 8d b4 24 00 20 00 	lea    0x2000(%rsp),%rsi
  401372:	00 
  401373:	e8 68 f7 ff ff       	call   400ae0 <strcasecmp@plt>
  401378:	85 c0                	test   %eax,%eax
  40137a:	74 21                	je     40139d <initialize_bomb+0x73>
  40137c:	83 c3 01             	add    $0x1,%ebx
  40137f:	eb 05                	jmp    401386 <initialize_bomb+0x5c>
  401381:	bb 00 00 00 00       	mov    $0x0,%ebx
  401386:	48 63 c3             	movslq %ebx,%rax
  401389:	48 8b 3c c5 00 42 60 	mov    0x604200(,%rax,8),%rdi
  401390:	00 
  401391:	48 85 ff             	test   %rdi,%rdi
  401394:	75 d5                	jne    40136b <initialize_bomb+0x41>
  401396:	b8 00 00 00 00       	mov    $0x0,%eax
  40139b:	eb 05                	jmp    4013a2 <initialize_bomb+0x78>
  40139d:	b8 01 00 00 00       	mov    $0x1,%eax
  4013a2:	85 c0                	test   %eax,%eax
  4013a4:	75 14                	jne    4013ba <initialize_bomb+0x90>
  4013a6:	bf 70 2b 40 00       	mov    $0x402b70,%edi
  4013ab:	e8 60 f7 ff ff       	call   400b10 <puts@plt>
  4013b0:	bf 08 00 00 00       	mov    $0x8,%edi
  4013b5:	e8 86 f8 ff ff       	call   400c40 <exit@plt>
  4013ba:	48 89 e7             	mov    %rsp,%rdi
  4013bd:	e8 c9 12 00 00       	call   40268b <init_driver>
  4013c2:	85 c0                	test   %eax,%eax
  4013c4:	79 1c                	jns    4013e2 <initialize_bomb+0xb8>
  4013c6:	48 89 e6             	mov    %rsp,%rsi
  4013c9:	bf a4 30 40 00       	mov    $0x4030a4,%edi
  4013ce:	b8 00 00 00 00       	mov    $0x0,%eax
  4013d3:	e8 58 f7 ff ff       	call   400b30 <printf@plt>
  4013d8:	bf 08 00 00 00       	mov    $0x8,%edi
  4013dd:	e8 5e f8 ff ff       	call   400c40 <exit@plt>
  4013e2:	48 81 c4 40 20 00 00 	add    $0x2040,%rsp
  4013e9:	5b                   	pop    %rbx
  4013ea:	c3                   	ret    

00000000004013eb <welcome_message>:
  4013eb:	83 ff 01             	cmp    $0x1,%edi
  4013ee:	0f 85 a8 00 00 00    	jne    40149c <welcome_message+0xb1>
  4013f4:	48 83 ec 08          	sub    $0x8,%rsp
  4013f8:	bf a8 2b 40 00       	mov    $0x402ba8,%edi
  4013fd:	e8 0e f7 ff ff       	call   400b10 <puts@plt>
  401402:	bf e8 2b 40 00       	mov    $0x402be8,%edi
  401407:	e8 04 f7 ff ff       	call   400b10 <puts@plt>
  40140c:	bf 28 2c 40 00       	mov    $0x402c28,%edi
  401411:	e8 fa f6 ff ff       	call   400b10 <puts@plt>
  401416:	bf 68 2c 40 00       	mov    $0x402c68,%edi
  40141b:	e8 f0 f6 ff ff       	call   400b10 <puts@plt>
  401420:	bf a8 2c 40 00       	mov    $0x402ca8,%edi
  401425:	e8 e6 f6 ff ff       	call   400b10 <puts@plt>
  40142a:	bf e8 2c 40 00       	mov    $0x402ce8,%edi
  40142f:	e8 dc f6 ff ff       	call   400b10 <puts@plt>
  401434:	bf 28 2d 40 00       	mov    $0x402d28,%edi
  401439:	e8 d2 f6 ff ff       	call   400b10 <puts@plt>
  40143e:	bf 60 2d 40 00       	mov    $0x402d60,%edi
  401443:	e8 c8 f6 ff ff       	call   400b10 <puts@plt>
  401448:	bf 98 2d 40 00       	mov    $0x402d98,%edi
  40144d:	e8 be f6 ff ff       	call   400b10 <puts@plt>
  401452:	bf d8 2d 40 00       	mov    $0x402dd8,%edi
  401457:	e8 b4 f6 ff ff       	call   400b10 <puts@plt>
  40145c:	bf 18 2e 40 00       	mov    $0x402e18,%edi
  401461:	e8 aa f6 ff ff       	call   400b10 <puts@plt>
  401466:	bf 58 2e 40 00       	mov    $0x402e58,%edi
  40146b:	e8 a0 f6 ff ff       	call   400b10 <puts@plt>
  401470:	bf 98 2e 40 00       	mov    $0x402e98,%edi
  401475:	e8 96 f6 ff ff       	call   400b10 <puts@plt>
  40147a:	bf d8 2e 40 00       	mov    $0x402ed8,%edi
  40147f:	e8 8c f6 ff ff       	call   400b10 <puts@plt>
  401484:	bf 18 2f 40 00       	mov    $0x402f18,%edi
  401489:	e8 82 f6 ff ff       	call   400b10 <puts@plt>
  40148e:	bf 58 2f 40 00       	mov    $0x402f58,%edi
  401493:	e8 78 f6 ff ff       	call   400b10 <puts@plt>
  401498:	48 83 c4 08          	add    $0x8,%rsp
  40149c:	f3 c3                	repz ret 

000000000040149e <initialize_bomb_solve>:
  40149e:	f3 c3                	repz ret 

00000000004014a0 <blank_line>:
  4014a0:	55                   	push   %rbp
  4014a1:	53                   	push   %rbx
  4014a2:	48 83 ec 08          	sub    $0x8,%rsp
  4014a6:	48 89 fb             	mov    %rdi,%rbx
  4014a9:	eb 17                	jmp    4014c2 <blank_line+0x22>
  4014ab:	e8 c0 f7 ff ff       	call   400c70 <__ctype_b_loc@plt>
  4014b0:	48 8b 00             	mov    (%rax),%rax
  4014b3:	48 83 c3 01          	add    $0x1,%rbx
  4014b7:	48 0f be ed          	movsbq %bpl,%rbp
  4014bb:	f6 44 68 01 20       	testb  $0x20,0x1(%rax,%rbp,2)
  4014c0:	74 0f                	je     4014d1 <blank_line+0x31>
  4014c2:	0f b6 2b             	movzbl (%rbx),%ebp
  4014c5:	40 84 ed             	test   %bpl,%bpl
  4014c8:	75 e1                	jne    4014ab <blank_line+0xb>
  4014ca:	b8 01 00 00 00       	mov    $0x1,%eax
  4014cf:	eb 05                	jmp    4014d6 <blank_line+0x36>
  4014d1:	b8 00 00 00 00       	mov    $0x0,%eax
  4014d6:	48 83 c4 08          	add    $0x8,%rsp
  4014da:	5b                   	pop    %rbx
  4014db:	5d                   	pop    %rbp
  4014dc:	c3                   	ret    

00000000004014dd <skip>:
  4014dd:	53                   	push   %rbx
  4014de:	48 63 05 3b 31 20 00 	movslq 0x20313b(%rip),%rax        # 604620 <num_input_strings>
  4014e5:	48 8d 3c 80          	lea    (%rax,%rax,4),%rdi
  4014e9:	48 c1 e7 04          	shl    $0x4,%rdi
  4014ed:	48 81 c7 40 46 60 00 	add    $0x604640,%rdi
  4014f4:	48 8b 15 2d 31 20 00 	mov    0x20312d(%rip),%rdx        # 604628 <infile>
  4014fb:	be 50 00 00 00       	mov    $0x50,%esi
  401500:	e8 7b f6 ff ff       	call   400b80 <fgets@plt>
  401505:	48 89 c3             	mov    %rax,%rbx
  401508:	48 85 c0             	test   %rax,%rax
  40150b:	74 0c                	je     401519 <skip+0x3c>
  40150d:	48 89 c7             	mov    %rax,%rdi
  401510:	e8 8b ff ff ff       	call   4014a0 <blank_line>
  401515:	85 c0                	test   %eax,%eax
  401517:	75 c5                	jne    4014de <skip+0x1>
  401519:	48 89 d8             	mov    %rbx,%rax
  40151c:	5b                   	pop    %rbx
  40151d:	c3                   	ret    

000000000040151e <send_msg>:
  40151e:	48 81 ec 08 40 00 00 	sub    $0x4008,%rsp
  401525:	89 fe                	mov    %edi,%esi
  401527:	44 8b 05 f2 30 20 00 	mov    0x2030f2(%rip),%r8d        # 604620 <num_input_strings>
  40152e:	41 8d 40 ff          	lea    -0x1(%r8),%eax
  401532:	48 98                	cltq   
  401534:	4c 8d 0c 80          	lea    (%rax,%rax,4),%r9
  401538:	49 c1 e1 04          	shl    $0x4,%r9
  40153c:	49 81 c1 40 46 60 00 	add    $0x604640,%r9
  401543:	4c 89 cf             	mov    %r9,%rdi
  401546:	b8 00 00 00 00       	mov    $0x0,%eax
  40154b:	48 c7 c1 ff ff ff ff 	mov    $0xffffffffffffffff,%rcx
  401552:	f2 ae                	repnz scas %es:(%rdi),%al
  401554:	48 f7 d1             	not    %rcx
  401557:	48 83 c1 63          	add    $0x63,%rcx
  40155b:	48 81 f9 00 20 00 00 	cmp    $0x2000,%rcx
  401562:	76 14                	jbe    401578 <send_msg+0x5a>
  401564:	bf 98 2f 40 00       	mov    $0x402f98,%edi
  401569:	e8 c2 f5 ff ff       	call   400b30 <printf@plt>
  40156e:	bf 08 00 00 00       	mov    $0x8,%edi
  401573:	e8 c8 f6 ff ff       	call   400c40 <exit@plt>
  401578:	85 f6                	test   %esi,%esi
  40157a:	74 07                	je     401583 <send_msg+0x65>
  40157c:	b9 be 30 40 00       	mov    $0x4030be,%ecx
  401581:	eb 05                	jmp    401588 <send_msg+0x6a>
  401583:	b9 c6 30 40 00       	mov    $0x4030c6,%ecx
  401588:	8b 15 52 2c 20 00    	mov    0x202c52(%rip),%edx        # 6041e0 <bomb_id>
  40158e:	be cf 30 40 00       	mov    $0x4030cf,%esi
  401593:	48 8d bc 24 00 20 00 	lea    0x2000(%rsp),%rdi
  40159a:	00 
  40159b:	b8 00 00 00 00       	mov    $0x0,%eax
  4015a0:	e8 8b f6 ff ff       	call   400c30 <sprintf@plt>
  4015a5:	49 89 e0             	mov    %rsp,%r8
  4015a8:	b9 00 00 00 00       	mov    $0x0,%ecx
  4015ad:	48 8d 94 24 00 20 00 	lea    0x2000(%rsp),%rdx
  4015b4:	00 
  4015b5:	be c0 41 60 00       	mov    $0x6041c0,%esi
  4015ba:	bf d5 41 60 00       	mov    $0x6041d5,%edi
  4015bf:	e8 65 12 00 00       	call   402829 <driver_post>
  4015c4:	85 c0                	test   %eax,%eax
  4015c6:	79 12                	jns    4015da <send_msg+0xbc>
  4015c8:	48 89 e7             	mov    %rsp,%rdi
  4015cb:	e8 40 f5 ff ff       	call   400b10 <puts@plt>
  4015d0:	bf 00 00 00 00       	mov    $0x0,%edi
  4015d5:	e8 66 f6 ff ff       	call   400c40 <exit@plt>
  4015da:	48 81 c4 08 40 00 00 	add    $0x4008,%rsp
  4015e1:	c3                   	ret    

00000000004015e2 <phase_defused>:
  4015e2:	48 83 ec 08          	sub    $0x8,%rsp
  4015e6:	bf 01 00 00 00       	mov    $0x1,%edi
  4015eb:	e8 2e ff ff ff       	call   40151e <send_msg>
  4015f0:	83 3d 29 30 20 00 05 	cmpl   $0x5,0x203029(%rip)        # 604620 <num_input_strings>
  4015f7:	7e 1d                	jle    401616 <phase_defused+0x34>
  4015f9:	83 3d 1c 30 20 00 21 	cmpl   $0x21,0x20301c(%rip)        # 60461c <last>
  401600:	74 14                	je     401616 <phase_defused+0x34>
  401602:	bf c0 2f 40 00       	mov    $0x402fc0,%edi
  401607:	e8 04 f5 ff ff       	call   400b10 <puts@plt>
  40160c:	bf f0 2f 40 00       	mov    $0x402ff0,%edi
  401611:	e8 fa f4 ff ff       	call   400b10 <puts@plt>
  401616:	48 83 c4 08          	add    $0x8,%rsp
  40161a:	c3                   	ret    

000000000040161b <explode_bomb>:
  40161b:	48 81 ec d8 00 00 00 	sub    $0xd8,%rsp
  401622:	83 3d f7 2f 20 00 06 	cmpl   $0x6,0x202ff7(%rip)        # 604620 <num_input_strings>
  401629:	77 61                	ja     40168c <explode_bomb+0x71>
  40162b:	8b 05 ef 2f 20 00    	mov    0x202fef(%rip),%eax        # 604620 <num_input_strings>
  401631:	ff 24 c5 b8 32 40 00 	jmp    *0x4032b8(,%rax,8)
  401638:	bf db 30 40 00       	mov    $0x4030db,%edi
  40163d:	e8 ce f4 ff ff       	call   400b10 <puts@plt>
  401642:	eb 48                	jmp    40168c <explode_bomb+0x71>
  401644:	bf 38 30 40 00       	mov    $0x403038,%edi
  401649:	e8 c2 f4 ff ff       	call   400b10 <puts@plt>
  40164e:	66 90                	xchg   %ax,%ax
  401650:	eb 3a                	jmp    40168c <explode_bomb+0x71>
  401652:	bf e0 30 40 00       	mov    $0x4030e0,%edi
  401657:	e8 b4 f4 ff ff       	call   400b10 <puts@plt>
  40165c:	eb 2e                	jmp    40168c <explode_bomb+0x71>
  40165e:	bf f5 30 40 00       	mov    $0x4030f5,%edi
  401663:	e8 a8 f4 ff ff       	call   400b10 <puts@plt>
  401668:	eb 22                	jmp    40168c <explode_bomb+0x71>
  40166a:	bf 0b 31 40 00       	mov    $0x40310b,%edi
  40166f:	e8 9c f4 ff ff       	call   400b10 <puts@plt>
  401674:	eb 16                	jmp    40168c <explode_bomb+0x71>
  401676:	bf 22 31 40 00       	mov    $0x403122,%edi
  40167b:	e8 90 f4 ff ff       	call   400b10 <puts@plt>
  401680:	eb 0a                	jmp    40168c <explode_bomb+0x71>
  401682:	bf 2b 31 40 00       	mov    $0x40312b,%edi
  401687:	e8 84 f4 ff ff       	call   400b10 <puts@plt>
  40168c:	48 89 e7             	mov    %rsp,%rdi
  40168f:	b9 19 00 00 00       	mov    $0x19,%ecx
  401694:	b8 00 00 00 00       	mov    $0x0,%eax
  401699:	f3 48 ab             	rep stos %rax,%es:(%rdi)
  40169c:	c6 04 24 53          	movb   $0x53,(%rsp)
  4016a0:	c6 44 24 01 6f       	movb   $0x6f,0x1(%rsp)
  4016a5:	c6 44 24 02 20       	movb   $0x20,0x2(%rsp)
  4016aa:	c6 44 24 03 79       	movb   $0x79,0x3(%rsp)
  4016af:	c6 44 24 04 6f       	movb   $0x6f,0x4(%rsp)
  4016b4:	c6 44 24 05 75       	movb   $0x75,0x5(%rsp)
  4016b9:	c6 44 24 06 20       	movb   $0x20,0x6(%rsp)
  4016be:	c6 44 24 07 6d       	movb   $0x6d,0x7(%rsp)
  4016c3:	c6 44 24 08 61       	movb   $0x61,0x8(%rsp)
  4016c8:	c6 44 24 09 64       	movb   $0x64,0x9(%rsp)
  4016cd:	c6 44 24 0a 65       	movb   $0x65,0xa(%rsp)
  4016d2:	c6 44 24 0b 20       	movb   $0x20,0xb(%rsp)
  4016d7:	c6 44 24 0c 69       	movb   $0x69,0xc(%rsp)
  4016dc:	c6 44 24 0d 74       	movb   $0x74,0xd(%rsp)
  4016e1:	c6 44 24 0e 20       	movb   $0x20,0xe(%rsp)
  4016e6:	c6 44 24 0f 74       	movb   $0x74,0xf(%rsp)
  4016eb:	c6 44 24 10 6f       	movb   $0x6f,0x10(%rsp)
  4016f0:	c6 44 24 11 20       	movb   $0x20,0x11(%rsp)
  4016f5:	c6 44 24 12 74       	movb   $0x74,0x12(%rsp)
  4016fa:	c6 44 24 13 68       	movb   $0x68,0x13(%rsp)
  4016ff:	c6 44 24 14 65       	movb   $0x65,0x14(%rsp)
  401704:	c6 44 24 15 20       	movb   $0x20,0x15(%rsp)
  401709:	c6 44 24 16 73       	movb   $0x73,0x16(%rsp)
  40170e:	c6 44 24 17 33       	movb   $0x33,0x17(%rsp)
  401713:	c6 44 24 18 63       	movb   $0x63,0x18(%rsp)
  401718:	c6 44 24 19 72       	movb   $0x72,0x19(%rsp)
  40171d:	c6 44 24 1a 65       	movb   $0x65,0x1a(%rsp)
  401722:	c6 44 24 1b 74       	movb   $0x74,0x1b(%rsp)
  401727:	c6 44 24 1c 20       	movb   $0x20,0x1c(%rsp)
  40172c:	c6 44 24 1d 70       	movb   $0x70,0x1d(%rsp)
  401731:	c6 44 24 1e 68       	movb   $0x68,0x1e(%rsp)
  401736:	c6 44 24 1f 61       	movb   $0x61,0x1f(%rsp)
  40173b:	c6 44 24 20 73       	movb   $0x73,0x20(%rsp)
  401740:	c6 44 24 21 65       	movb   $0x65,0x21(%rsp)
  401745:	c6 44 24 22 2e       	movb   $0x2e,0x22(%rsp)
  40174a:	c6 44 24 23 20       	movb   $0x20,0x23(%rsp)
  40174f:	c6 44 24 24 20       	movb   $0x20,0x24(%rsp)
  401754:	c6 44 24 25 4e       	movb   $0x4e,0x25(%rsp)
  401759:	c6 44 24 26 69       	movb   $0x69,0x26(%rsp)
  40175e:	c6 44 24 27 63       	movb   $0x63,0x27(%rsp)
  401763:	c6 44 24 28 65       	movb   $0x65,0x28(%rsp)
  401768:	c6 44 24 29 2c       	movb   $0x2c,0x29(%rsp)
  40176d:	c6 44 24 2a 20       	movb   $0x20,0x2a(%rsp)
  401772:	c6 44 24 2b 62       	movb   $0x62,0x2b(%rsp)
  401777:	c6 44 24 2c 75       	movb   $0x75,0x2c(%rsp)
  40177c:	c6 44 24 2d 74       	movb   $0x74,0x2d(%rsp)
  401781:	c6 44 24 2e 0a       	movb   $0xa,0x2e(%rsp)
  401786:	c6 44 24 2f 64       	movb   $0x64,0x2f(%rsp)
  40178b:	c6 44 24 30 6f       	movb   $0x6f,0x30(%rsp)
  401790:	c6 44 24 31 6e       	movb   $0x6e,0x31(%rsp)
  401795:	c6 44 24 32 27       	movb   $0x27,0x32(%rsp)
  40179a:	c6 44 24 33 74       	movb   $0x74,0x33(%rsp)
  40179f:	c6 44 24 34 20       	movb   $0x20,0x34(%rsp)
  4017a4:	c6 44 24 35 74       	movb   $0x74,0x35(%rsp)
  4017a9:	c6 44 24 36 65       	movb   $0x65,0x36(%rsp)
  4017ae:	c6 44 24 37 6c       	movb   $0x6c,0x37(%rsp)
  4017b3:	c6 44 24 38 6c       	movb   $0x6c,0x38(%rsp)
  4017b8:	c6 44 24 39 20       	movb   $0x20,0x39(%rsp)
  4017bd:	c6 44 24 3a 61       	movb   $0x61,0x3a(%rsp)
  4017c2:	c6 44 24 3b 6e       	movb   $0x6e,0x3b(%rsp)
  4017c7:	c6 44 24 3c 79       	movb   $0x79,0x3c(%rsp)
  4017cc:	c6 44 24 3d 6f       	movb   $0x6f,0x3d(%rsp)
  4017d1:	c6 44 24 3e 6e       	movb   $0x6e,0x3e(%rsp)
  4017d6:	c6 44 24 3f 65       	movb   $0x65,0x3f(%rsp)
  4017db:	c6 44 24 40 20       	movb   $0x20,0x40(%rsp)
  4017e0:	c6 44 24 41 61       	movb   $0x61,0x41(%rsp)
  4017e5:	c6 44 24 42 62       	movb   $0x62,0x42(%rsp)
  4017ea:	c6 44 24 43 6f       	movb   $0x6f,0x43(%rsp)
  4017ef:	c6 44 24 44 75       	movb   $0x75,0x44(%rsp)
  4017f4:	c6 44 24 45 74       	movb   $0x74,0x45(%rsp)
  4017f9:	c6 44 24 46 20       	movb   $0x20,0x46(%rsp)
  4017fe:	c6 44 24 47 69       	movb   $0x69,0x47(%rsp)
  401803:	c6 44 24 48 74       	movb   $0x74,0x48(%rsp)
  401808:	c6 44 24 49 20       	movb   $0x20,0x49(%rsp)
  40180d:	c6 44 24 4a 28       	movb   $0x28,0x4a(%rsp)
  401812:	c6 44 24 4b 65       	movb   $0x65,0x4b(%rsp)
  401817:	c6 44 24 4c 73       	movb   $0x73,0x4c(%rsp)
  40181c:	c6 44 24 4d 70       	movb   $0x70,0x4d(%rsp)
  401821:	c6 44 24 4e 65       	movb   $0x65,0x4e(%rsp)
  401826:	c6 44 24 4f 63       	movb   $0x63,0x4f(%rsp)
  40182b:	c6 44 24 50 69       	movb   $0x69,0x50(%rsp)
  401830:	c6 44 24 51 61       	movb   $0x61,0x51(%rsp)
  401835:	c6 44 24 52 6c       	movb   $0x6c,0x52(%rsp)
  40183a:	c6 44 24 53 6c       	movb   $0x6c,0x53(%rsp)
  40183f:	c6 44 24 54 79       	movb   $0x79,0x54(%rsp)
  401844:	c6 44 24 55 20       	movb   $0x20,0x55(%rsp)
  401849:	c6 44 24 56 6f       	movb   $0x6f,0x56(%rsp)
  40184e:	c6 44 24 57 6e       	movb   $0x6e,0x57(%rsp)
  401853:	c6 44 24 58 20       	movb   $0x20,0x58(%rsp)
  401858:	c6 44 24 59 50       	movb   $0x50,0x59(%rsp)
  40185d:	c6 44 24 5a 69       	movb   $0x69,0x5a(%rsp)
  401862:	c6 44 24 5b 61       	movb   $0x61,0x5b(%rsp)
  401867:	c6 44 24 5c 7a       	movb   $0x7a,0x5c(%rsp)
  40186c:	c6 44 24 5d 7a       	movb   $0x7a,0x5d(%rsp)
  401871:	c6 44 24 5e 61       	movb   $0x61,0x5e(%rsp)
  401876:	c6 44 24 5f 29       	movb   $0x29,0x5f(%rsp)
  40187b:	c6 44 24 60 2e       	movb   $0x2e,0x60(%rsp)
  401880:	c6 44 24 61 0a       	movb   $0xa,0x61(%rsp)
  401885:	c6 44 24 62 49       	movb   $0x49,0x62(%rsp)
  40188a:	c6 44 24 63 66       	movb   $0x66,0x63(%rsp)
  40188f:	c6 44 24 64 20       	movb   $0x20,0x64(%rsp)
  401894:	c6 44 24 65 79       	movb   $0x79,0x65(%rsp)
  401899:	c6 44 24 66 6f       	movb   $0x6f,0x66(%rsp)
  40189e:	c6 44 24 67 75       	movb   $0x75,0x67(%rsp)
  4018a3:	c6 44 24 68 20       	movb   $0x20,0x68(%rsp)
  4018a8:	c6 44 24 69 64       	movb   $0x64,0x69(%rsp)
  4018ad:	c6 44 24 6a 6f       	movb   $0x6f,0x6a(%rsp)
  4018b2:	c6 44 24 6b 20       	movb   $0x20,0x6b(%rsp)
  4018b7:	c6 44 24 6c 79       	movb   $0x79,0x6c(%rsp)
  4018bc:	c6 44 24 6d 6f       	movb   $0x6f,0x6d(%rsp)
  4018c1:	c6 44 24 6e 75       	movb   $0x75,0x6e(%rsp)
  4018c6:	c6 44 24 6f 20       	movb   $0x20,0x6f(%rsp)
  4018cb:	c6 44 24 70 77       	movb   $0x77,0x70(%rsp)
  4018d0:	c6 44 24 71 6f       	movb   $0x6f,0x71(%rsp)
  4018d5:	c6 44 24 72 6e       	movb   $0x6e,0x72(%rsp)
  4018da:	c6 44 24 73 27       	movb   $0x27,0x73(%rsp)
  4018df:	c6 44 24 74 74       	movb   $0x74,0x74(%rsp)
  4018e4:	c6 44 24 75 20       	movb   $0x20,0x75(%rsp)
  4018e9:	c6 44 24 76 67       	movb   $0x67,0x76(%rsp)
  4018ee:	c6 44 24 77 65       	movb   $0x65,0x77(%rsp)
  4018f3:	c6 44 24 78 74       	movb   $0x74,0x78(%rsp)
  4018f8:	c6 44 24 79 20       	movb   $0x20,0x79(%rsp)
  4018fd:	c6 44 24 7a 61       	movb   $0x61,0x7a(%rsp)
  401902:	c6 44 24 7b 6e       	movb   $0x6e,0x7b(%rsp)
  401907:	c6 44 24 7c 79       	movb   $0x79,0x7c(%rsp)
  40190c:	c6 44 24 7d 20       	movb   $0x20,0x7d(%rsp)
  401911:	c6 44 24 7e 65       	movb   $0x65,0x7e(%rsp)
  401916:	c6 44 24 7f 78       	movb   $0x78,0x7f(%rsp)
  40191b:	c6 84 24 80 00 00 00 	movb   $0x74,0x80(%rsp)
  401922:	74 
  401923:	c6 84 24 81 00 00 00 	movb   $0x72,0x81(%rsp)
  40192a:	72 
  40192b:	c6 84 24 82 00 00 00 	movb   $0x61,0x82(%rsp)
  401932:	61 
  401933:	c6 84 24 83 00 00 00 	movb   $0x20,0x83(%rsp)
  40193a:	20 
  40193b:	c6 84 24 84 00 00 00 	movb   $0x63,0x84(%rsp)
  401942:	63 
  401943:	c6 84 24 85 00 00 00 	movb   $0x72,0x85(%rsp)
  40194a:	72 
  40194b:	c6 84 24 86 00 00 00 	movb   $0x65,0x86(%rsp)
  401952:	65 
  401953:	c6 84 24 87 00 00 00 	movb   $0x64,0x87(%rsp)
  40195a:	64 
  40195b:	c6 84 24 88 00 00 00 	movb   $0x69,0x88(%rsp)
  401962:	69 
  401963:	c6 84 24 89 00 00 00 	movb   $0x74,0x89(%rsp)
  40196a:	74 
  40196b:	c6 84 24 8a 00 00 00 	movb   $0x21,0x8a(%rsp)
  401972:	21 
  401973:	c6 84 24 8b 00 00 00 	movb   $0x20,0x8b(%rsp)
  40197a:	20 
  40197b:	c6 84 24 8c 00 00 00 	movb   $0x61,0x8c(%rsp)
  401982:	61 
  401983:	c6 84 24 8d 00 00 00 	movb   $0x6e,0x8d(%rsp)
  40198a:	6e 
  40198b:	c6 84 24 8e 00 00 00 	movb   $0x79,0x8e(%rsp)
  401992:	79 
  401993:	c6 84 24 8f 00 00 00 	movb   $0x77,0x8f(%rsp)
  40199a:	77 
  40199b:	c6 84 24 90 00 00 00 	movb   $0x61,0x90(%rsp)
  4019a2:	61 
  4019a3:	c6 84 24 91 00 00 00 	movb   $0x79,0x91(%rsp)
  4019aa:	79 
  4019ab:	c6 84 24 92 00 00 00 	movb   $0x73,0x92(%rsp)
  4019b2:	73 
  4019b3:	c6 84 24 93 00 00 00 	movb   $0x2c,0x93(%rsp)
  4019ba:	2c 
  4019bb:	c6 84 24 94 00 00 00 	movb   $0xa,0x94(%rsp)
  4019c2:	0a 
  4019c3:	c6 84 24 95 00 00 00 	movb   $0x66,0x95(%rsp)
  4019ca:	66 
  4019cb:	c6 84 24 96 00 00 00 	movb   $0x69,0x96(%rsp)
  4019d2:	69 
  4019d3:	c6 84 24 97 00 00 00 	movb   $0x6e,0x97(%rsp)
  4019da:	6e 
  4019db:	c6 84 24 98 00 00 00 	movb   $0x64,0x98(%rsp)
  4019e2:	64 
  4019e3:	c6 84 24 99 00 00 00 	movb   $0x69,0x99(%rsp)
  4019ea:	69 
  4019eb:	c6 84 24 9a 00 00 00 	movb   $0x6e,0x9a(%rsp)
  4019f2:	6e 
  4019f3:	c6 84 24 9b 00 00 00 	movb   $0x67,0x9b(%rsp)
  4019fa:	67 
  4019fb:	c6 84 24 9c 00 00 00 	movb   $0x20,0x9c(%rsp)
  401a02:	20 
  401a03:	c6 84 24 9d 00 00 00 	movb   $0x69,0x9d(%rsp)
  401a0a:	69 
  401a0b:	c6 84 24 9e 00 00 00 	movb   $0x74,0x9e(%rsp)
  401a12:	74 
  401a13:	c6 84 24 9f 00 00 00 	movb   $0x20,0x9f(%rsp)
  401a1a:	20 
  401a1b:	c6 84 24 a0 00 00 00 	movb   $0x61,0xa0(%rsp)
  401a22:	61 
  401a23:	c6 84 24 a1 00 00 00 	movb   $0x6e,0xa1(%rsp)
  401a2a:	6e 
  401a2b:	c6 84 24 a2 00 00 00 	movb   $0x64,0xa2(%rsp)
  401a32:	64 
  401a33:	c6 84 24 a3 00 00 00 	movb   $0x20,0xa3(%rsp)
  401a3a:	20 
  401a3b:	c6 84 24 a4 00 00 00 	movb   $0x73,0xa4(%rsp)
  401a42:	73 
  401a43:	c6 84 24 a5 00 00 00 	movb   $0x6f,0xa5(%rsp)
  401a4a:	6f 
  401a4b:	c6 84 24 a6 00 00 00 	movb   $0x6c,0xa6(%rsp)
  401a52:	6c 
  401a53:	c6 84 24 a7 00 00 00 	movb   $0x76,0xa7(%rsp)
  401a5a:	76 
  401a5b:	c6 84 24 a8 00 00 00 	movb   $0x69,0xa8(%rsp)
  401a62:	69 
  401a63:	c6 84 24 a9 00 00 00 	movb   $0x6e,0xa9(%rsp)
  401a6a:	6e 
  401a6b:	c6 84 24 aa 00 00 00 	movb   $0x67,0xaa(%rsp)
  401a72:	67 
  401a73:	c6 84 24 ab 00 00 00 	movb   $0x20,0xab(%rsp)
  401a7a:	20 
  401a7b:	c6 84 24 ac 00 00 00 	movb   $0x69,0xac(%rsp)
  401a82:	69 
  401a83:	c6 84 24 ad 00 00 00 	movb   $0x74,0xad(%rsp)
  401a8a:	74 
  401a8b:	c6 84 24 ae 00 00 00 	movb   $0x20,0xae(%rsp)
  401a92:	20 
  401a93:	c6 84 24 af 00 00 00 	movb   $0x61,0xaf(%rsp)
  401a9a:	61 
  401a9b:	c6 84 24 b0 00 00 00 	movb   $0x72,0xb0(%rsp)
  401aa2:	72 
  401aa3:	c6 84 24 b1 00 00 00 	movb   $0x65,0xb1(%rsp)
  401aaa:	65 
  401aab:	c6 84 24 b2 00 00 00 	movb   $0x20,0xb2(%rsp)
  401ab2:	20 
  401ab3:	c6 84 24 b3 00 00 00 	movb   $0x71,0xb3(%rsp)
  401aba:	71 
  401abb:	c6 84 24 b4 00 00 00 	movb   $0x75,0xb4(%rsp)
  401ac2:	75 
  401ac3:	c6 84 24 b5 00 00 00 	movb   $0x69,0xb5(%rsp)
  401aca:	69 
  401acb:	c6 84 24 b6 00 00 00 	movb   $0x74,0xb6(%rsp)
  401ad2:	74 
  401ad3:	c6 84 24 b7 00 00 00 	movb   $0x65,0xb7(%rsp)
  401ada:	65 
  401adb:	c6 84 24 b8 00 00 00 	movb   $0x20,0xb8(%rsp)
  401ae2:	20 
  401ae3:	c6 84 24 b9 00 00 00 	movb   $0x64,0xb9(%rsp)
  401aea:	64 
  401aeb:	c6 84 24 ba 00 00 00 	movb   $0x69,0xba(%rsp)
  401af2:	69 
  401af3:	c6 84 24 bb 00 00 00 	movb   $0x66,0xbb(%rsp)
  401afa:	66 
  401afb:	c6 84 24 bc 00 00 00 	movb   $0x66,0xbc(%rsp)
  401b02:	66 
  401b03:	c6 84 24 bd 00 00 00 	movb   $0x65,0xbd(%rsp)
  401b0a:	65 
  401b0b:	c6 84 24 be 00 00 00 	movb   $0x72,0xbe(%rsp)
  401b12:	72 
  401b13:	c6 84 24 bf 00 00 00 	movb   $0x65,0xbf(%rsp)
  401b1a:	65 
  401b1b:	c6 84 24 c0 00 00 00 	movb   $0x6e,0xc0(%rsp)
  401b22:	6e 
  401b23:	c6 84 24 c1 00 00 00 	movb   $0x74,0xc1(%rsp)
  401b2a:	74 
  401b2b:	c6 84 24 c2 00 00 00 	movb   $0x2e,0xc2(%rsp)
  401b32:	2e 
  401b33:	c6 84 24 c3 00 00 00 	movb   $0x2e,0xc3(%rsp)
  401b3a:	2e 
  401b3b:	c6 84 24 c4 00 00 00 	movb   $0x2e,0xc4(%rsp)
  401b42:	2e 
  401b43:	83 3d d6 2a 20 00 06 	cmpl   $0x6,0x202ad6(%rip)        # 604620 <num_input_strings>
  401b4a:	75 34                	jne    401b80 <explode_bomb+0x565>
  401b4c:	83 3d c9 2a 20 00 21 	cmpl   $0x21,0x202ac9(%rip)        # 60461c <last>
  401b53:	75 2b                	jne    401b80 <explode_bomb+0x565>
  401b55:	48 89 e7             	mov    %rsp,%rdi
  401b58:	e8 b3 ef ff ff       	call   400b10 <puts@plt>
  401b5d:	e8 80 fa ff ff       	call   4015e2 <phase_defused>
  401b62:	c7 05 b0 2a 20 00 00 	movl   $0x0,0x202ab0(%rip)        # 60461c <last>
  401b69:	00 00 00 
  401b6c:	b8 00 00 00 00       	mov    $0x0,%eax
  401b71:	e8 2f f6 ff ff       	call   4011a5 <s3cret_ph4se>
  401b76:	bf 00 00 00 00       	mov    $0x0,%edi
  401b7b:	e8 c0 f0 ff ff       	call   400c40 <exit@plt>
  401b80:	bf 35 31 40 00       	mov    $0x403135,%edi
  401b85:	e8 86 ef ff ff       	call   400b10 <puts@plt>
  401b8a:	bf 3e 31 40 00       	mov    $0x40313e,%edi
  401b8f:	e8 7c ef ff ff       	call   400b10 <puts@plt>
  401b94:	bf 00 00 00 00       	mov    $0x0,%edi
  401b99:	e8 80 f9 ff ff       	call   40151e <send_msg>
  401b9e:	bf 60 30 40 00       	mov    $0x403060,%edi
  401ba3:	e8 68 ef ff ff       	call   400b10 <puts@plt>
  401ba8:	bf 08 00 00 00       	mov    $0x8,%edi
  401bad:	e8 8e f0 ff ff       	call   400c40 <exit@plt>

0000000000401bb2 <read_six_numbers>:
  401bb2:	48 83 ec 18          	sub    $0x18,%rsp
  401bb6:	48 89 f2             	mov    %rsi,%rdx
  401bb9:	48 8d 76 14          	lea    0x14(%rsi),%rsi
  401bbd:	48 8d 42 10          	lea    0x10(%rdx),%rax
  401bc1:	48 8d 4a 04          	lea    0x4(%rdx),%rcx
  401bc5:	48 89 74 24 08       	mov    %rsi,0x8(%rsp)
  401bca:	48 89 04 24          	mov    %rax,(%rsp)
  401bce:	4c 8d 4a 0c          	lea    0xc(%rdx),%r9
  401bd2:	4c 8d 42 08          	lea    0x8(%rdx),%r8
  401bd6:	be 55 31 40 00       	mov    $0x403155,%esi
  401bdb:	b8 00 00 00 00       	mov    $0x0,%eax
  401be0:	e8 0b f0 ff ff       	call   400bf0 <__isoc99_sscanf@plt>
  401be5:	83 f8 05             	cmp    $0x5,%eax
  401be8:	7f 05                	jg     401bef <read_six_numbers+0x3d>
  401bea:	e8 2c fa ff ff       	call   40161b <explode_bomb>
  401bef:	48 83 c4 18          	add    $0x18,%rsp
  401bf3:	c3                   	ret    

0000000000401bf4 <read_two_numbers>:
  401bf4:	48 83 ec 08          	sub    $0x8,%rsp //rsp - 8
  401bf8:	48 89 d1             	mov    %rdx,%rcx //rcx = rdx
  401bfb:	48 89 f2             	mov    %rsi,%rdx //rdx = rsi
  401bfe:	be 61 31 40 00       	mov    $0x403161,%esi //esi = 0x403161
  401c03:	b8 00 00 00 00       	mov    $0x0,%eax //eax = 0
  401c08:	e8 e3 ef ff ff       	call   400bf0 <__isoc99_sscanf@plt>
  401c0d:	83 f8 02             	cmp    $0x2,%eax //eax == 2
  401c10:	74 05                	je     401c17 <read_two_numbers+0x23>
  401c12:	e8 04 fa ff ff       	call   40161b <explode_bomb>
  401c17:	48 83 c4 08          	add    $0x8,%rsp
  401c1b:	c3                   	ret    

0000000000401c1c <read_line>:
  401c1c:	48 83 ec 08          	sub    $0x8,%rsp
  401c20:	b8 00 00 00 00       	mov    $0x0,%eax
  401c25:	e8 b3 f8 ff ff       	call   4014dd <skip>
  401c2a:	48 85 c0             	test   %rax,%rax
  401c2d:	75 6e                	jne    401c9d <read_line+0x81>
  401c2f:	48 8b 05 d2 29 20 00 	mov    0x2029d2(%rip),%rax        # 604608 <stdin@@GLIBC_2.2.5>
  401c36:	48 39 05 eb 29 20 00 	cmp    %rax,0x2029eb(%rip)        # 604628 <infile>
  401c3d:	75 14                	jne    401c53 <read_line+0x37>
  401c3f:	bf 67 31 40 00       	mov    $0x403167,%edi
  401c44:	e8 c7 ee ff ff       	call   400b10 <puts@plt>
  401c49:	bf 08 00 00 00       	mov    $0x8,%edi
  401c4e:	e8 ed ef ff ff       	call   400c40 <exit@plt>
  401c53:	bf 85 31 40 00       	mov    $0x403185,%edi
  401c58:	e8 73 ee ff ff       	call   400ad0 <getenv@plt>
  401c5d:	48 85 c0             	test   %rax,%rax
  401c60:	74 0a                	je     401c6c <read_line+0x50>
  401c62:	bf 00 00 00 00       	mov    $0x0,%edi
  401c67:	e8 d4 ef ff ff       	call   400c40 <exit@plt>
  401c6c:	48 8b 05 95 29 20 00 	mov    0x202995(%rip),%rax        # 604608 <stdin@@GLIBC_2.2.5>
  401c73:	48 89 05 ae 29 20 00 	mov    %rax,0x2029ae(%rip)        # 604628 <infile>
  401c7a:	b8 00 00 00 00       	mov    $0x0,%eax
  401c7f:	e8 59 f8 ff ff       	call   4014dd <skip>
  401c84:	48 85 c0             	test   %rax,%rax
  401c87:	75 14                	jne    401c9d <read_line+0x81>
  401c89:	bf 67 31 40 00       	mov    $0x403167,%edi
  401c8e:	e8 7d ee ff ff       	call   400b10 <puts@plt>
  401c93:	bf 00 00 00 00       	mov    $0x0,%edi
  401c98:	e8 a3 ef ff ff       	call   400c40 <exit@plt>
  401c9d:	8b 15 7d 29 20 00    	mov    0x20297d(%rip),%edx        # 604620 <num_input_strings>
  401ca3:	48 63 c2             	movslq %edx,%rax
  401ca6:	48 8d 04 80          	lea    (%rax,%rax,4),%rax
  401caa:	48 c1 e0 04          	shl    $0x4,%rax
  401cae:	4c 8d 80 40 46 60 00 	lea    0x604640(%rax),%r8
  401cb5:	4c 89 c7             	mov    %r8,%rdi
  401cb8:	b8 00 00 00 00       	mov    $0x0,%eax
  401cbd:	48 c7 c1 ff ff ff ff 	mov    $0xffffffffffffffff,%rcx
  401cc4:	f2 ae                	repnz scas %es:(%rdi),%al
  401cc6:	48 f7 d1             	not    %rcx
  401cc9:	48 83 e9 01          	sub    $0x1,%rcx
  401ccd:	83 f9 4e             	cmp    $0x4e,%ecx
  401cd0:	7e 46                	jle    401d18 <read_line+0xfc>
  401cd2:	bf 90 31 40 00       	mov    $0x403190,%edi
  401cd7:	e8 34 ee ff ff       	call   400b10 <puts@plt>
  401cdc:	8b 05 3e 29 20 00    	mov    0x20293e(%rip),%eax        # 604620 <num_input_strings>
  401ce2:	8d 50 01             	lea    0x1(%rax),%edx
  401ce5:	89 15 35 29 20 00    	mov    %edx,0x202935(%rip)        # 604620 <num_input_strings>
  401ceb:	48 98                	cltq   
  401ced:	48 6b c0 50          	imul   $0x50,%rax,%rax
  401cf1:	48 bf 2a 2a 2a 74 72 	movabs $0x636e7572742a2a2a,%rdi
  401cf8:	75 6e 63 
  401cfb:	48 89 b8 40 46 60 00 	mov    %rdi,0x604640(%rax)
  401d02:	48 bf 61 74 65 64 2a 	movabs $0x2a2a2a64657461,%rdi
  401d09:	2a 2a 00 
  401d0c:	48 89 b8 48 46 60 00 	mov    %rdi,0x604648(%rax)
  401d13:	e8 03 f9 ff ff       	call   40161b <explode_bomb>
  401d18:	83 e9 01             	sub    $0x1,%ecx
  401d1b:	48 63 c9             	movslq %ecx,%rcx
  401d1e:	48 63 c2             	movslq %edx,%rax
  401d21:	48 8d 34 80          	lea    (%rax,%rax,4),%rsi
  401d25:	48 c1 e6 04          	shl    $0x4,%rsi
  401d29:	c6 84 31 40 46 60 00 	movb   $0x0,0x604640(%rcx,%rsi,1)
  401d30:	00 
  401d31:	83 c2 01             	add    $0x1,%edx
  401d34:	89 15 e6 28 20 00    	mov    %edx,0x2028e6(%rip)        # 604620 <num_input_strings>
  401d3a:	4c 89 c0             	mov    %r8,%rax
  401d3d:	48 83 c4 08          	add    $0x8,%rsp
  401d41:	c3                   	ret    
  401d42:	66 2e 0f 1f 84 00 00 	cs nopw 0x0(%rax,%rax,1)
  401d49:	00 00 00 
  401d4c:	0f 1f 40 00          	nopl   0x0(%rax)

0000000000401d50 <rio_readinitb>:
  401d50:	89 37                	mov    %esi,(%rdi)
  401d52:	c7 47 04 00 00 00 00 	movl   $0x0,0x4(%rdi)
  401d59:	48 8d 47 10          	lea    0x10(%rdi),%rax
  401d5d:	48 89 47 08          	mov    %rax,0x8(%rdi)
  401d61:	c3                   	ret    

0000000000401d62 <sigalrm_handler>:
  401d62:	48 83 ec 08          	sub    $0x8,%rsp
  401d66:	ba 00 00 00 00       	mov    $0x0,%edx
  401d6b:	be f0 32 40 00       	mov    $0x4032f0,%esi
  401d70:	48 8b 3d 99 28 20 00 	mov    0x202899(%rip),%rdi        # 604610 <stderr@@GLIBC_2.2.5>
  401d77:	b8 00 00 00 00       	mov    $0x0,%eax
  401d7c:	e8 2f ee ff ff       	call   400bb0 <fprintf@plt>
  401d81:	bf 01 00 00 00       	mov    $0x1,%edi
  401d86:	e8 b5 ee ff ff       	call   400c40 <exit@plt>

0000000000401d8b <urlencode>:
  401d8b:	41 54                	push   %r12
  401d8d:	55                   	push   %rbp
  401d8e:	53                   	push   %rbx
  401d8f:	48 83 ec 10          	sub    $0x10,%rsp
  401d93:	48 89 fb             	mov    %rdi,%rbx
  401d96:	48 89 f5             	mov    %rsi,%rbp
  401d99:	b8 00 00 00 00       	mov    $0x0,%eax
  401d9e:	48 c7 c1 ff ff ff ff 	mov    $0xffffffffffffffff,%rcx
  401da5:	f2 ae                	repnz scas %es:(%rdi),%al
  401da7:	48 f7 d1             	not    %rcx
  401daa:	8d 41 ff             	lea    -0x1(%rcx),%eax
  401dad:	e9 93 00 00 00       	jmp    401e45 <urlencode+0xba>
  401db2:	0f b6 13             	movzbl (%rbx),%edx
  401db5:	80 fa 2a             	cmp    $0x2a,%dl
  401db8:	0f 94 c1             	sete   %cl
  401dbb:	80 fa 2d             	cmp    $0x2d,%dl
  401dbe:	0f 94 c0             	sete   %al
  401dc1:	08 c1                	or     %al,%cl
  401dc3:	75 1f                	jne    401de4 <urlencode+0x59>
  401dc5:	80 fa 2e             	cmp    $0x2e,%dl
  401dc8:	74 1a                	je     401de4 <urlencode+0x59>
  401dca:	80 fa 5f             	cmp    $0x5f,%dl
  401dcd:	74 15                	je     401de4 <urlencode+0x59>
  401dcf:	8d 42 d0             	lea    -0x30(%rdx),%eax
  401dd2:	3c 09                	cmp    $0x9,%al
  401dd4:	76 0e                	jbe    401de4 <urlencode+0x59>
  401dd6:	8d 42 bf             	lea    -0x41(%rdx),%eax
  401dd9:	3c 19                	cmp    $0x19,%al
  401ddb:	76 07                	jbe    401de4 <urlencode+0x59>
  401ddd:	8d 42 9f             	lea    -0x61(%rdx),%eax
  401de0:	3c 19                	cmp    $0x19,%al
  401de2:	77 09                	ja     401ded <urlencode+0x62>
  401de4:	88 55 00             	mov    %dl,0x0(%rbp)
  401de7:	48 8d 6d 01          	lea    0x1(%rbp),%rbp
  401deb:	eb 51                	jmp    401e3e <urlencode+0xb3>
  401ded:	80 fa 20             	cmp    $0x20,%dl
  401df0:	75 0a                	jne    401dfc <urlencode+0x71>
  401df2:	c6 45 00 2b          	movb   $0x2b,0x0(%rbp)
  401df6:	48 8d 6d 01          	lea    0x1(%rbp),%rbp
  401dfa:	eb 42                	jmp    401e3e <urlencode+0xb3>
  401dfc:	8d 42 e0             	lea    -0x20(%rdx),%eax
  401dff:	3c 5f                	cmp    $0x5f,%al
  401e01:	0f 96 c1             	setbe  %cl
  401e04:	80 fa 09             	cmp    $0x9,%dl
  401e07:	0f 94 c0             	sete   %al
  401e0a:	08 c1                	or     %al,%cl
  401e0c:	74 45                	je     401e53 <urlencode+0xc8>
  401e0e:	0f b6 d2             	movzbl %dl,%edx
  401e11:	be c8 33 40 00       	mov    $0x4033c8,%esi
  401e16:	48 89 e7             	mov    %rsp,%rdi
  401e19:	b8 00 00 00 00       	mov    $0x0,%eax
  401e1e:	e8 0d ee ff ff       	call   400c30 <sprintf@plt>
  401e23:	0f b6 04 24          	movzbl (%rsp),%eax
  401e27:	88 45 00             	mov    %al,0x0(%rbp)
  401e2a:	0f b6 44 24 01       	movzbl 0x1(%rsp),%eax
  401e2f:	88 45 01             	mov    %al,0x1(%rbp)
  401e32:	0f b6 44 24 02       	movzbl 0x2(%rsp),%eax
  401e37:	88 45 02             	mov    %al,0x2(%rbp)
  401e3a:	48 8d 6d 03          	lea    0x3(%rbp),%rbp
  401e3e:	48 83 c3 01          	add    $0x1,%rbx
  401e42:	44 89 e0             	mov    %r12d,%eax
  401e45:	44 8d 60 ff          	lea    -0x1(%rax),%r12d
  401e49:	85 c0                	test   %eax,%eax
  401e4b:	0f 85 61 ff ff ff    	jne    401db2 <urlencode+0x27>
  401e51:	eb 05                	jmp    401e58 <urlencode+0xcd>
  401e53:	b8 ff ff ff ff       	mov    $0xffffffff,%eax
  401e58:	48 83 c4 10          	add    $0x10,%rsp
  401e5c:	5b                   	pop    %rbx
  401e5d:	5d                   	pop    %rbp
  401e5e:	41 5c                	pop    %r12
  401e60:	c3                   	ret    

0000000000401e61 <rio_writen>:
  401e61:	41 55                	push   %r13
  401e63:	41 54                	push   %r12
  401e65:	55                   	push   %rbp
  401e66:	53                   	push   %rbx
  401e67:	48 83 ec 08          	sub    $0x8,%rsp
  401e6b:	41 89 fc             	mov    %edi,%r12d
  401e6e:	48 89 f5             	mov    %rsi,%rbp
  401e71:	49 89 d5             	mov    %rdx,%r13
  401e74:	48 89 d3             	mov    %rdx,%rbx
  401e77:	eb 28                	jmp    401ea1 <rio_writen+0x40>
  401e79:	48 89 da             	mov    %rbx,%rdx
  401e7c:	48 89 ee             	mov    %rbp,%rsi
  401e7f:	44 89 e7             	mov    %r12d,%edi
  401e82:	e8 99 ec ff ff       	call   400b20 <write@plt>
  401e87:	48 85 c0             	test   %rax,%rax
  401e8a:	7f 0f                	jg     401e9b <rio_writen+0x3a>
  401e8c:	e8 5f ec ff ff       	call   400af0 <__errno_location@plt>
  401e91:	83 38 04             	cmpl   $0x4,(%rax)
  401e94:	75 15                	jne    401eab <rio_writen+0x4a>
  401e96:	b8 00 00 00 00       	mov    $0x0,%eax
  401e9b:	48 29 c3             	sub    %rax,%rbx
  401e9e:	48 01 c5             	add    %rax,%rbp
  401ea1:	48 85 db             	test   %rbx,%rbx
  401ea4:	75 d3                	jne    401e79 <rio_writen+0x18>
  401ea6:	4c 89 e8             	mov    %r13,%rax
  401ea9:	eb 07                	jmp    401eb2 <rio_writen+0x51>
  401eab:	48 c7 c0 ff ff ff ff 	mov    $0xffffffffffffffff,%rax
  401eb2:	48 83 c4 08          	add    $0x8,%rsp
  401eb6:	5b                   	pop    %rbx
  401eb7:	5d                   	pop    %rbp
  401eb8:	41 5c                	pop    %r12
  401eba:	41 5d                	pop    %r13
  401ebc:	c3                   	ret    

0000000000401ebd <rio_read>:
  401ebd:	41 56                	push   %r14
  401ebf:	41 55                	push   %r13
  401ec1:	41 54                	push   %r12
  401ec3:	55                   	push   %rbp
  401ec4:	53                   	push   %rbx
  401ec5:	48 89 fb             	mov    %rdi,%rbx
  401ec8:	49 89 f6             	mov    %rsi,%r14
  401ecb:	49 89 d5             	mov    %rdx,%r13
  401ece:	4c 8d 67 10          	lea    0x10(%rdi),%r12
  401ed2:	eb 2a                	jmp    401efe <rio_read+0x41>
  401ed4:	ba 00 20 00 00       	mov    $0x2000,%edx
  401ed9:	4c 89 e6             	mov    %r12,%rsi
  401edc:	8b 3b                	mov    (%rbx),%edi
  401ede:	e8 7d ec ff ff       	call   400b60 <read@plt>
  401ee3:	89 43 04             	mov    %eax,0x4(%rbx)
  401ee6:	85 c0                	test   %eax,%eax
  401ee8:	79 0c                	jns    401ef6 <rio_read+0x39>
  401eea:	e8 01 ec ff ff       	call   400af0 <__errno_location@plt>
  401eef:	83 38 04             	cmpl   $0x4,(%rax)
  401ef2:	74 0a                	je     401efe <rio_read+0x41>
  401ef4:	eb 38                	jmp    401f2e <rio_read+0x71>
  401ef6:	85 c0                	test   %eax,%eax
  401ef8:	74 3d                	je     401f37 <rio_read+0x7a>
  401efa:	4c 89 63 08          	mov    %r12,0x8(%rbx)
  401efe:	8b 6b 04             	mov    0x4(%rbx),%ebp
  401f01:	85 ed                	test   %ebp,%ebp
  401f03:	7e cf                	jle    401ed4 <rio_read+0x17>
  401f05:	48 63 c5             	movslq %ebp,%rax
  401f08:	4c 39 e8             	cmp    %r13,%rax
  401f0b:	72 03                	jb     401f10 <rio_read+0x53>
  401f0d:	44 89 ed             	mov    %r13d,%ebp
  401f10:	4c 63 e5             	movslq %ebp,%r12
  401f13:	48 8b 73 08          	mov    0x8(%rbx),%rsi
  401f17:	4c 89 e2             	mov    %r12,%rdx
  401f1a:	4c 89 f7             	mov    %r14,%rdi
  401f1d:	e8 ae ec ff ff       	call   400bd0 <memcpy@plt>
  401f22:	4c 01 63 08          	add    %r12,0x8(%rbx)
  401f26:	29 6b 04             	sub    %ebp,0x4(%rbx)
  401f29:	4c 89 e0             	mov    %r12,%rax
  401f2c:	eb 0e                	jmp    401f3c <rio_read+0x7f>
  401f2e:	48 c7 c0 ff ff ff ff 	mov    $0xffffffffffffffff,%rax
  401f35:	eb 05                	jmp    401f3c <rio_read+0x7f>
  401f37:	b8 00 00 00 00       	mov    $0x0,%eax
  401f3c:	5b                   	pop    %rbx
  401f3d:	5d                   	pop    %rbp
  401f3e:	41 5c                	pop    %r12
  401f40:	41 5d                	pop    %r13
  401f42:	41 5e                	pop    %r14
  401f44:	c3                   	ret    

0000000000401f45 <rio_readlineb>:
  401f45:	41 55                	push   %r13
  401f47:	41 54                	push   %r12
  401f49:	55                   	push   %rbp
  401f4a:	53                   	push   %rbx
  401f4b:	48 83 ec 18          	sub    $0x18,%rsp
  401f4f:	49 89 fd             	mov    %rdi,%r13
  401f52:	48 89 f5             	mov    %rsi,%rbp
  401f55:	49 89 d4             	mov    %rdx,%r12
  401f58:	bb 01 00 00 00       	mov    $0x1,%ebx
  401f5d:	eb 3b                	jmp    401f9a <rio_readlineb+0x55>
  401f5f:	ba 01 00 00 00       	mov    $0x1,%edx
  401f64:	48 8d 74 24 0f       	lea    0xf(%rsp),%rsi
  401f69:	4c 89 ef             	mov    %r13,%rdi
  401f6c:	e8 4c ff ff ff       	call   401ebd <rio_read>
  401f71:	83 f8 01             	cmp    $0x1,%eax
  401f74:	75 12                	jne    401f88 <rio_readlineb+0x43>
  401f76:	48 8d 55 01          	lea    0x1(%rbp),%rdx
  401f7a:	0f b6 44 24 0f       	movzbl 0xf(%rsp),%eax
  401f7f:	88 45 00             	mov    %al,0x0(%rbp)
  401f82:	3c 0a                	cmp    $0xa,%al
  401f84:	75 0e                	jne    401f94 <rio_readlineb+0x4f>
  401f86:	eb 1c                	jmp    401fa4 <rio_readlineb+0x5f>
  401f88:	85 c0                	test   %eax,%eax
  401f8a:	75 24                	jne    401fb0 <rio_readlineb+0x6b>
  401f8c:	83 fb 01             	cmp    $0x1,%ebx
  401f8f:	90                   	nop
  401f90:	75 15                	jne    401fa7 <rio_readlineb+0x62>
  401f92:	eb 25                	jmp    401fb9 <rio_readlineb+0x74>
  401f94:	83 c3 01             	add    $0x1,%ebx
  401f97:	48 89 d5             	mov    %rdx,%rbp
  401f9a:	48 63 c3             	movslq %ebx,%rax
  401f9d:	4c 39 e0             	cmp    %r12,%rax
  401fa0:	72 bd                	jb     401f5f <rio_readlineb+0x1a>
  401fa2:	eb 03                	jmp    401fa7 <rio_readlineb+0x62>
  401fa4:	48 89 d5             	mov    %rdx,%rbp
  401fa7:	c6 45 00 00          	movb   $0x0,0x0(%rbp)
  401fab:	48 63 c3             	movslq %ebx,%rax
  401fae:	eb 0e                	jmp    401fbe <rio_readlineb+0x79>
  401fb0:	48 c7 c0 ff ff ff ff 	mov    $0xffffffffffffffff,%rax
  401fb7:	eb 05                	jmp    401fbe <rio_readlineb+0x79>
  401fb9:	b8 00 00 00 00       	mov    $0x0,%eax
  401fbe:	48 83 c4 18          	add    $0x18,%rsp
  401fc2:	5b                   	pop    %rbx
  401fc3:	5d                   	pop    %rbp
  401fc4:	41 5c                	pop    %r12
  401fc6:	41 5d                	pop    %r13
  401fc8:	c3                   	ret    

0000000000401fc9 <submitr>:
  401fc9:	41 57                	push   %r15
  401fcb:	41 56                	push   %r14
  401fcd:	41 55                	push   %r13
  401fcf:	41 54                	push   %r12
  401fd1:	55                   	push   %rbp
  401fd2:	53                   	push   %rbx
  401fd3:	48 81 ec 58 a0 00 00 	sub    $0xa058,%rsp
  401fda:	49 89 ff             	mov    %rdi,%r15
  401fdd:	89 74 24 14          	mov    %esi,0x14(%rsp)
  401fe1:	49 89 d4             	mov    %rdx,%r12
  401fe4:	49 89 cd             	mov    %rcx,%r13
  401fe7:	4c 89 44 24 18       	mov    %r8,0x18(%rsp)
  401fec:	4d 89 ce             	mov    %r9,%r14
  401fef:	48 8b 9c 24 98 a0 00 	mov    0xa098(%rsp),%rbx
  401ff6:	00 
  401ff7:	c7 84 24 2c 20 00 00 	movl   $0x0,0x202c(%rsp)
  401ffe:	00 00 00 00 
  402002:	ba 00 00 00 00       	mov    $0x0,%edx
  402007:	be 01 00 00 00       	mov    $0x1,%esi
  40200c:	bf 02 00 00 00       	mov    $0x2,%edi
  402011:	e8 6a ec ff ff       	call   400c80 <socket@plt>
  402016:	89 c5                	mov    %eax,%ebp
  402018:	85 c0                	test   %eax,%eax
  40201a:	79 4e                	jns    40206a <submitr+0xa1>
  40201c:	48 b8 45 72 72 6f 72 	movabs $0x43203a726f727245,%rax
  402023:	3a 20 43 
  402026:	48 89 03             	mov    %rax,(%rbx)
  402029:	48 b8 6c 69 65 6e 74 	movabs $0x6e7520746e65696c,%rax
  402030:	20 75 6e 
  402033:	48 89 43 08          	mov    %rax,0x8(%rbx)
  402037:	48 b8 61 62 6c 65 20 	movabs $0x206f7420656c6261,%rax
  40203e:	74 6f 20 
  402041:	48 89 43 10          	mov    %rax,0x10(%rbx)
  402045:	48 b8 63 72 65 61 74 	movabs $0x7320657461657263,%rax
  40204c:	65 20 73 
  40204f:	48 89 43 18          	mov    %rax,0x18(%rbx)
  402053:	c7 43 20 6f 63 6b 65 	movl   $0x656b636f,0x20(%rbx)
  40205a:	66 c7 43 24 74 00    	movw   $0x74,0x24(%rbx)
  402060:	b8 ff ff ff ff       	mov    $0xffffffff,%eax
  402065:	e9 e7 05 00 00       	jmp    402651 <submitr+0x688>
  40206a:	4c 89 ff             	mov    %r15,%rdi
  40206d:	e8 2e eb ff ff       	call   400ba0 <gethostbyname@plt>
  402072:	48 85 c0             	test   %rax,%rax
  402075:	75 67                	jne    4020de <submitr+0x115>
  402077:	48 b8 45 72 72 6f 72 	movabs $0x44203a726f727245,%rax
  40207e:	3a 20 44 
  402081:	48 89 03             	mov    %rax,(%rbx)
  402084:	48 b8 4e 53 20 69 73 	movabs $0x6e7520736920534e,%rax
  40208b:	20 75 6e 
  40208e:	48 89 43 08          	mov    %rax,0x8(%rbx)
  402092:	48 b8 61 62 6c 65 20 	movabs $0x206f7420656c6261,%rax
  402099:	74 6f 20 
  40209c:	48 89 43 10          	mov    %rax,0x10(%rbx)
  4020a0:	48 b8 72 65 73 6f 6c 	movabs $0x2065766c6f736572,%rax
  4020a7:	76 65 20 
  4020aa:	48 89 43 18          	mov    %rax,0x18(%rbx)
  4020ae:	48 b8 73 65 72 76 65 	movabs $0x6120726576726573,%rax
  4020b5:	72 20 61 
  4020b8:	48 89 43 20          	mov    %rax,0x20(%rbx)
  4020bc:	c7 43 28 64 64 72 65 	movl   $0x65726464,0x28(%rbx)
  4020c3:	66 c7 43 2c 73 73    	movw   $0x7373,0x2c(%rbx)
  4020c9:	c6 43 2e 00          	movb   $0x0,0x2e(%rbx)
  4020cd:	89 ef                	mov    %ebp,%edi
  4020cf:	e8 7c ea ff ff       	call   400b50 <close@plt>
  4020d4:	b8 ff ff ff ff       	mov    $0xffffffff,%eax
  4020d9:	e9 73 05 00 00       	jmp    402651 <submitr+0x688>
  4020de:	48 c7 84 24 40 a0 00 	movq   $0x0,0xa040(%rsp)
  4020e5:	00 00 00 00 00 
  4020ea:	48 c7 84 24 48 a0 00 	movq   $0x0,0xa048(%rsp)
  4020f1:	00 00 00 00 00 
  4020f6:	66 c7 84 24 40 a0 00 	movw   $0x2,0xa040(%rsp)
  4020fd:	00 02 00 
  402100:	48 8b 48 18          	mov    0x18(%rax),%rcx
  402104:	48 63 50 14          	movslq 0x14(%rax),%rdx
  402108:	48 8d b4 24 44 a0 00 	lea    0xa044(%rsp),%rsi
  40210f:	00 
  402110:	48 8b 39             	mov    (%rcx),%rdi
  402113:	e8 e8 ea ff ff       	call   400c00 <bcopy@plt>
  402118:	0f b7 44 24 14       	movzwl 0x14(%rsp),%eax
  40211d:	66 c1 c8 08          	ror    $0x8,%ax
  402121:	66 89 84 24 42 a0 00 	mov    %ax,0xa042(%rsp)
  402128:	00 
  402129:	ba 10 00 00 00       	mov    $0x10,%edx
  40212e:	48 8d b4 24 40 a0 00 	lea    0xa040(%rsp),%rsi
  402135:	00 
  402136:	89 ef                	mov    %ebp,%edi
  402138:	e8 13 eb ff ff       	call   400c50 <connect@plt>
  40213d:	85 c0                	test   %eax,%eax
  40213f:	79 59                	jns    40219a <submitr+0x1d1>
  402141:	48 b8 45 72 72 6f 72 	movabs $0x55203a726f727245,%rax
  402148:	3a 20 55 
  40214b:	48 89 03             	mov    %rax,(%rbx)
  40214e:	48 b8 6e 61 62 6c 65 	movabs $0x6f7420656c62616e,%rax
  402155:	20 74 6f 
  402158:	48 89 43 08          	mov    %rax,0x8(%rbx)
  40215c:	48 b8 20 63 6f 6e 6e 	movabs $0x7463656e6e6f6320,%rax
  402163:	65 63 74 
  402166:	48 89 43 10          	mov    %rax,0x10(%rbx)
  40216a:	48 b8 20 74 6f 20 74 	movabs $0x20656874206f7420,%rax
  402171:	68 65 20 
  402174:	48 89 43 18          	mov    %rax,0x18(%rbx)
  402178:	c7 43 20 73 65 72 76 	movl   $0x76726573,0x20(%rbx)
  40217f:	66 c7 43 24 65 72    	movw   $0x7265,0x24(%rbx)
  402185:	c6 43 26 00          	movb   $0x0,0x26(%rbx)
  402189:	89 ef                	mov    %ebp,%edi
  40218b:	e8 c0 e9 ff ff       	call   400b50 <close@plt>
  402190:	b8 ff ff ff ff       	mov    $0xffffffff,%eax
  402195:	e9 b7 04 00 00       	jmp    402651 <submitr+0x688>
  40219a:	48 c7 c2 ff ff ff ff 	mov    $0xffffffffffffffff,%rdx
  4021a1:	48 8b bc 24 90 a0 00 	mov    0xa090(%rsp),%rdi
  4021a8:	00 
  4021a9:	b8 00 00 00 00       	mov    $0x0,%eax
  4021ae:	48 89 d1             	mov    %rdx,%rcx
  4021b1:	f2 ae                	repnz scas %es:(%rdi),%al
  4021b3:	48 f7 d1             	not    %rcx
  4021b6:	48 89 ce             	mov    %rcx,%rsi
  4021b9:	4c 89 e7             	mov    %r12,%rdi
  4021bc:	48 89 d1             	mov    %rdx,%rcx
  4021bf:	f2 ae                	repnz scas %es:(%rdi),%al
  4021c1:	48 f7 d1             	not    %rcx
  4021c4:	49 89 c8             	mov    %rcx,%r8
  4021c7:	4c 89 ef             	mov    %r13,%rdi
  4021ca:	48 89 d1             	mov    %rdx,%rcx
  4021cd:	f2 ae                	repnz scas %es:(%rdi),%al
  4021cf:	49 29 c8             	sub    %rcx,%r8
  4021d2:	4c 89 f7             	mov    %r14,%rdi
  4021d5:	48 89 d1             	mov    %rdx,%rcx
  4021d8:	f2 ae                	repnz scas %es:(%rdi),%al
  4021da:	49 29 c8             	sub    %rcx,%r8
  4021dd:	48 8d 44 76 fd       	lea    -0x3(%rsi,%rsi,2),%rax
  4021e2:	49 8d 44 00 7b       	lea    0x7b(%r8,%rax,1),%rax
  4021e7:	48 3d 00 20 00 00    	cmp    $0x2000,%rax
  4021ed:	76 72                	jbe    402261 <submitr+0x298>
  4021ef:	48 b8 45 72 72 6f 72 	movabs $0x52203a726f727245,%rax
  4021f6:	3a 20 52 
  4021f9:	48 89 03             	mov    %rax,(%rbx)
  4021fc:	48 b8 65 73 75 6c 74 	movabs $0x747320746c757365,%rax
  402203:	20 73 74 
  402206:	48 89 43 08          	mov    %rax,0x8(%rbx)
  40220a:	48 b8 72 69 6e 67 20 	movabs $0x6f6f7420676e6972,%rax
  402211:	74 6f 6f 
  402214:	48 89 43 10          	mov    %rax,0x10(%rbx)
  402218:	48 b8 20 6c 61 72 67 	movabs $0x202e656772616c20,%rax
  40221f:	65 2e 20 
  402222:	48 89 43 18          	mov    %rax,0x18(%rbx)
  402226:	48 b8 49 6e 63 72 65 	movabs $0x6573616572636e49,%rax
  40222d:	61 73 65 
  402230:	48 89 43 20          	mov    %rax,0x20(%rbx)
  402234:	48 b8 20 53 55 42 4d 	movabs $0x5254494d42555320,%rax
  40223b:	49 54 52 
  40223e:	48 89 43 28          	mov    %rax,0x28(%rbx)
  402242:	48 b8 5f 4d 41 58 42 	movabs $0x46554258414d5f,%rax
  402249:	55 46 00 
  40224c:	48 89 43 30          	mov    %rax,0x30(%rbx)
  402250:	89 ef                	mov    %ebp,%edi
  402252:	e8 f9 e8 ff ff       	call   400b50 <close@plt>
  402257:	b8 ff ff ff ff       	mov    $0xffffffff,%eax
  40225c:	e9 f0 03 00 00       	jmp    402651 <submitr+0x688>
  402261:	48 8d b4 24 30 40 00 	lea    0x4030(%rsp),%rsi
  402268:	00 
  402269:	b9 00 04 00 00       	mov    $0x400,%ecx
  40226e:	b8 00 00 00 00       	mov    $0x0,%eax
  402273:	48 89 f7             	mov    %rsi,%rdi
  402276:	f3 48 ab             	rep stos %rax,%es:(%rdi)
  402279:	48 8b bc 24 90 a0 00 	mov    0xa090(%rsp),%rdi
  402280:	00 
  402281:	e8 05 fb ff ff       	call   401d8b <urlencode>
  402286:	85 c0                	test   %eax,%eax
  402288:	0f 89 8a 00 00 00    	jns    402318 <submitr+0x34f>
  40228e:	48 b8 45 72 72 6f 72 	movabs $0x52203a726f727245,%rax
  402295:	3a 20 52 
  402298:	48 89 03             	mov    %rax,(%rbx)
  40229b:	48 b8 65 73 75 6c 74 	movabs $0x747320746c757365,%rax
  4022a2:	20 73 74 
  4022a5:	48 89 43 08          	mov    %rax,0x8(%rbx)
  4022a9:	48 b8 72 69 6e 67 20 	movabs $0x6e6f6320676e6972,%rax
  4022b0:	63 6f 6e 
  4022b3:	48 89 43 10          	mov    %rax,0x10(%rbx)
  4022b7:	48 b8 74 61 69 6e 73 	movabs $0x6e6120736e696174,%rax
  4022be:	20 61 6e 
  4022c1:	48 89 43 18          	mov    %rax,0x18(%rbx)
  4022c5:	48 b8 20 69 6c 6c 65 	movabs $0x6c6167656c6c6920,%rax
  4022cc:	67 61 6c 
  4022cf:	48 89 43 20          	mov    %rax,0x20(%rbx)
  4022d3:	48 b8 20 6f 72 20 75 	movabs $0x72706e7520726f20,%rax
  4022da:	6e 70 72 
  4022dd:	48 89 43 28          	mov    %rax,0x28(%rbx)
  4022e1:	48 b8 69 6e 74 61 62 	movabs $0x20656c6261746e69,%rax
  4022e8:	6c 65 20 
  4022eb:	48 89 43 30          	mov    %rax,0x30(%rbx)
  4022ef:	48 b8 63 68 61 72 61 	movabs $0x6574636172616863,%rax
  4022f6:	63 74 65 
  4022f9:	48 89 43 38          	mov    %rax,0x38(%rbx)
  4022fd:	66 c7 43 40 72 2e    	movw   $0x2e72,0x40(%rbx)
  402303:	c6 43 42 00          	movb   $0x0,0x42(%rbx)
  402307:	89 ef                	mov    %ebp,%edi
  402309:	e8 42 e8 ff ff       	call   400b50 <close@plt>
  40230e:	b8 ff ff ff ff       	mov    $0xffffffff,%eax
  402313:	e9 39 03 00 00       	jmp    402651 <submitr+0x688>
  402318:	48 8d 84 24 30 40 00 	lea    0x4030(%rsp),%rax
  40231f:	00 
  402320:	48 89 04 24          	mov    %rax,(%rsp)
  402324:	4d 89 f1             	mov    %r14,%r9
  402327:	4c 8b 44 24 18       	mov    0x18(%rsp),%r8
  40232c:	4c 89 e9             	mov    %r13,%rcx
  40232f:	4c 89 e2             	mov    %r12,%rdx
  402332:	be 18 33 40 00       	mov    $0x403318,%esi
  402337:	48 8d bc 24 30 60 00 	lea    0x6030(%rsp),%rdi
  40233e:	00 
  40233f:	b8 00 00 00 00       	mov    $0x0,%eax
  402344:	e8 e7 e8 ff ff       	call   400c30 <sprintf@plt>
  402349:	48 8d bc 24 30 60 00 	lea    0x6030(%rsp),%rdi
  402350:	00 
  402351:	b8 00 00 00 00       	mov    $0x0,%eax
  402356:	48 c7 c1 ff ff ff ff 	mov    $0xffffffffffffffff,%rcx
  40235d:	f2 ae                	repnz scas %es:(%rdi),%al
  40235f:	48 f7 d1             	not    %rcx
  402362:	48 8d 51 ff          	lea    -0x1(%rcx),%rdx
  402366:	48 8d b4 24 30 60 00 	lea    0x6030(%rsp),%rsi
  40236d:	00 
  40236e:	89 ef                	mov    %ebp,%edi
  402370:	e8 ec fa ff ff       	call   401e61 <rio_writen>
  402375:	48 85 c0             	test   %rax,%rax
  402378:	79 5d                	jns    4023d7 <submitr+0x40e>
  40237a:	48 b8 45 72 72 6f 72 	movabs $0x43203a726f727245,%rax
  402381:	3a 20 43 
  402384:	48 89 03             	mov    %rax,(%rbx)
  402387:	48 b8 6c 69 65 6e 74 	movabs $0x6e7520746e65696c,%rax
  40238e:	20 75 6e 
  402391:	48 89 43 08          	mov    %rax,0x8(%rbx)
  402395:	48 b8 61 62 6c 65 20 	movabs $0x206f7420656c6261,%rax
  40239c:	74 6f 20 
  40239f:	48 89 43 10          	mov    %rax,0x10(%rbx)
  4023a3:	48 b8 77 72 69 74 65 	movabs $0x6f74206574697277,%rax
  4023aa:	20 74 6f 
  4023ad:	48 89 43 18          	mov    %rax,0x18(%rbx)
  4023b1:	48 b8 20 74 68 65 20 	movabs $0x7265732065687420,%rax
  4023b8:	73 65 72 
  4023bb:	48 89 43 20          	mov    %rax,0x20(%rbx)
  4023bf:	c7 43 28 76 65 72 00 	movl   $0x726576,0x28(%rbx)
  4023c6:	89 ef                	mov    %ebp,%edi
  4023c8:	e8 83 e7 ff ff       	call   400b50 <close@plt>
  4023cd:	b8 ff ff ff ff       	mov    $0xffffffff,%eax
  4023d2:	e9 7a 02 00 00       	jmp    402651 <submitr+0x688>
  4023d7:	89 ee                	mov    %ebp,%esi
  4023d9:	48 8d bc 24 30 80 00 	lea    0x8030(%rsp),%rdi
  4023e0:	00 
  4023e1:	e8 6a f9 ff ff       	call   401d50 <rio_readinitb>
  4023e6:	ba 00 20 00 00       	mov    $0x2000,%edx
  4023eb:	48 8d b4 24 30 60 00 	lea    0x6030(%rsp),%rsi
  4023f2:	00 
  4023f3:	48 8d bc 24 30 80 00 	lea    0x8030(%rsp),%rdi
  4023fa:	00 
  4023fb:	e8 45 fb ff ff       	call   401f45 <rio_readlineb>
  402400:	48 85 c0             	test   %rax,%rax
  402403:	7f 71                	jg     402476 <submitr+0x4ad>
  402405:	48 b8 45 72 72 6f 72 	movabs $0x43203a726f727245,%rax
  40240c:	3a 20 43 
  40240f:	48 89 03             	mov    %rax,(%rbx)
  402412:	48 b8 6c 69 65 6e 74 	movabs $0x6e7520746e65696c,%rax
  402419:	20 75 6e 
  40241c:	48 89 43 08          	mov    %rax,0x8(%rbx)
  402420:	48 b8 61 62 6c 65 20 	movabs $0x206f7420656c6261,%rax
  402427:	74 6f 20 
  40242a:	48 89 43 10          	mov    %rax,0x10(%rbx)
  40242e:	48 b8 72 65 61 64 20 	movabs $0x7269662064616572,%rax
  402435:	66 69 72 
  402438:	48 89 43 18          	mov    %rax,0x18(%rbx)
  40243c:	48 b8 73 74 20 68 65 	movabs $0x6564616568207473,%rax
  402443:	61 64 65 
  402446:	48 89 43 20          	mov    %rax,0x20(%rbx)
  40244a:	48 b8 72 20 66 72 6f 	movabs $0x73206d6f72662072,%rax
  402451:	6d 20 73 
  402454:	48 89 43 28          	mov    %rax,0x28(%rbx)
  402458:	c7 43 30 65 72 76 65 	movl   $0x65767265,0x30(%rbx)
  40245f:	66 c7 43 34 72 00    	movw   $0x72,0x34(%rbx)
  402465:	89 ef                	mov    %ebp,%edi
  402467:	e8 e4 e6 ff ff       	call   400b50 <close@plt>
  40246c:	b8 ff ff ff ff       	mov    $0xffffffff,%eax
  402471:	e9 db 01 00 00       	jmp    402651 <submitr+0x688>
  402476:	4c 8d 44 24 20       	lea    0x20(%rsp),%r8
  40247b:	48 8d 8c 24 2c 20 00 	lea    0x202c(%rsp),%rcx
  402482:	00 
  402483:	48 8d 94 24 30 20 00 	lea    0x2030(%rsp),%rdx
  40248a:	00 
  40248b:	be cf 33 40 00       	mov    $0x4033cf,%esi
  402490:	48 8d bc 24 30 60 00 	lea    0x6030(%rsp),%rdi
  402497:	00 
  402498:	b8 00 00 00 00       	mov    $0x0,%eax
  40249d:	e8 4e e7 ff ff       	call   400bf0 <__isoc99_sscanf@plt>
  4024a2:	8b 94 24 2c 20 00 00 	mov    0x202c(%rsp),%edx
  4024a9:	81 fa c8 00 00 00    	cmp    $0xc8,%edx
  4024af:	0f 84 af 00 00 00    	je     402564 <submitr+0x59b>
  4024b5:	48 8d 4c 24 20       	lea    0x20(%rsp),%rcx
  4024ba:	be 70 33 40 00       	mov    $0x403370,%esi
  4024bf:	48 89 df             	mov    %rbx,%rdi
  4024c2:	b8 00 00 00 00       	mov    $0x0,%eax
  4024c7:	e8 64 e7 ff ff       	call   400c30 <sprintf@plt>
  4024cc:	89 ef                	mov    %ebp,%edi
  4024ce:	e8 7d e6 ff ff       	call   400b50 <close@plt>
  4024d3:	b8 ff ff ff ff       	mov    $0xffffffff,%eax
  4024d8:	e9 74 01 00 00       	jmp    402651 <submitr+0x688>
  4024dd:	ba 00 20 00 00       	mov    $0x2000,%edx
  4024e2:	48 8d b4 24 30 60 00 	lea    0x6030(%rsp),%rsi
  4024e9:	00 
  4024ea:	48 8d bc 24 30 80 00 	lea    0x8030(%rsp),%rdi
  4024f1:	00 
  4024f2:	e8 4e fa ff ff       	call   401f45 <rio_readlineb>
  4024f7:	48 85 c0             	test   %rax,%rax
  4024fa:	7f 68                	jg     402564 <submitr+0x59b>
  4024fc:	48 b8 45 72 72 6f 72 	movabs $0x43203a726f727245,%rax
  402503:	3a 20 43 
  402506:	48 89 03             	mov    %rax,(%rbx)
  402509:	48 b8 6c 69 65 6e 74 	movabs $0x6e7520746e65696c,%rax
  402510:	20 75 6e 
  402513:	48 89 43 08          	mov    %rax,0x8(%rbx)
  402517:	48 b8 61 62 6c 65 20 	movabs $0x206f7420656c6261,%rax
  40251e:	74 6f 20 
  402521:	48 89 43 10          	mov    %rax,0x10(%rbx)
  402525:	48 b8 72 65 61 64 20 	movabs $0x6165682064616572,%rax
  40252c:	68 65 61 
  40252f:	48 89 43 18          	mov    %rax,0x18(%rbx)
  402533:	48 b8 64 65 72 73 20 	movabs $0x6f72662073726564,%rax
  40253a:	66 72 6f 
  40253d:	48 89 43 20          	mov    %rax,0x20(%rbx)
  402541:	48 b8 6d 20 73 65 72 	movabs $0x726576726573206d,%rax
  402548:	76 65 72 
  40254b:	48 89 43 28          	mov    %rax,0x28(%rbx)
  40254f:	c6 43 30 00          	movb   $0x0,0x30(%rbx)
  402553:	89 ef                	mov    %ebp,%edi
  402555:	e8 f6 e5 ff ff       	call   400b50 <close@plt>
  40255a:	b8 ff ff ff ff       	mov    $0xffffffff,%eax
  40255f:	e9 ed 00 00 00       	jmp    402651 <submitr+0x688>
  402564:	0f b6 84 24 30 60 00 	movzbl 0x6030(%rsp),%eax
  40256b:	00 
  40256c:	83 e8 0d             	sub    $0xd,%eax
  40256f:	75 15                	jne    402586 <submitr+0x5bd>
  402571:	0f b6 84 24 31 60 00 	movzbl 0x6031(%rsp),%eax
  402578:	00 
  402579:	83 e8 0a             	sub    $0xa,%eax
  40257c:	75 08                	jne    402586 <submitr+0x5bd>
  40257e:	0f b6 84 24 32 60 00 	movzbl 0x6032(%rsp),%eax
  402585:	00 
  402586:	85 c0                	test   %eax,%eax
  402588:	0f 85 4f ff ff ff    	jne    4024dd <submitr+0x514>
  40258e:	ba 00 20 00 00       	mov    $0x2000,%edx
  402593:	48 8d b4 24 30 60 00 	lea    0x6030(%rsp),%rsi
  40259a:	00 
  40259b:	48 8d bc 24 30 80 00 	lea    0x8030(%rsp),%rdi
  4025a2:	00 
  4025a3:	e8 9d f9 ff ff       	call   401f45 <rio_readlineb>
  4025a8:	48 85 c0             	test   %rax,%rax
  4025ab:	7f 6f                	jg     40261c <submitr+0x653>
  4025ad:	48 b8 45 72 72 6f 72 	movabs $0x43203a726f727245,%rax
  4025b4:	3a 20 43 
  4025b7:	48 89 03             	mov    %rax,(%rbx)
  4025ba:	48 b8 6c 69 65 6e 74 	movabs $0x6e7520746e65696c,%rax
  4025c1:	20 75 6e 
  4025c4:	48 89 43 08          	mov    %rax,0x8(%rbx)
  4025c8:	48 b8 61 62 6c 65 20 	movabs $0x206f7420656c6261,%rax
  4025cf:	74 6f 20 
  4025d2:	48 89 43 10          	mov    %rax,0x10(%rbx)
  4025d6:	48 b8 72 65 61 64 20 	movabs $0x6174732064616572,%rax
  4025dd:	73 74 61 
  4025e0:	48 89 43 18          	mov    %rax,0x18(%rbx)
  4025e4:	48 b8 74 75 73 20 6d 	movabs $0x7373656d20737574,%rax
  4025eb:	65 73 73 
  4025ee:	48 89 43 20          	mov    %rax,0x20(%rbx)
  4025f2:	48 b8 61 67 65 20 66 	movabs $0x6d6f726620656761,%rax
  4025f9:	72 6f 6d 
  4025fc:	48 89 43 28          	mov    %rax,0x28(%rbx)
  402600:	48 b8 20 73 65 72 76 	movabs $0x72657672657320,%rax
  402607:	65 72 00 
  40260a:	48 89 43 30          	mov    %rax,0x30(%rbx)
  40260e:	89 ef                	mov    %ebp,%edi
  402610:	e8 3b e5 ff ff       	call   400b50 <close@plt>
  402615:	b8 ff ff ff ff       	mov    $0xffffffff,%eax
  40261a:	eb 35                	jmp    402651 <submitr+0x688>
  40261c:	48 8d b4 24 30 60 00 	lea    0x6030(%rsp),%rsi
  402623:	00 
  402624:	48 89 df             	mov    %rbx,%rdi
  402627:	e8 d4 e4 ff ff       	call   400b00 <strcpy@plt>
  40262c:	89 ef                	mov    %ebp,%edi
  40262e:	e8 1d e5 ff ff       	call   400b50 <close@plt>
  402633:	0f b6 03             	movzbl (%rbx),%eax
  402636:	83 e8 4f             	sub    $0x4f,%eax
  402639:	75 0d                	jne    402648 <submitr+0x67f>
  40263b:	0f b6 43 01          	movzbl 0x1(%rbx),%eax
  40263f:	83 e8 4b             	sub    $0x4b,%eax
  402642:	75 04                	jne    402648 <submitr+0x67f>
  402644:	0f b6 43 02          	movzbl 0x2(%rbx),%eax
  402648:	85 c0                	test   %eax,%eax
  40264a:	74 05                	je     402651 <submitr+0x688>
  40264c:	b8 ff ff ff ff       	mov    $0xffffffff,%eax
  402651:	48 81 c4 58 a0 00 00 	add    $0xa058,%rsp
  402658:	5b                   	pop    %rbx
  402659:	5d                   	pop    %rbp
  40265a:	41 5c                	pop    %r12
  40265c:	41 5d                	pop    %r13
  40265e:	41 5e                	pop    %r14
  402660:	41 5f                	pop    %r15
  402662:	c3                   	ret    

0000000000402663 <init_timeout>:
  402663:	53                   	push   %rbx
  402664:	89 fb                	mov    %edi,%ebx
  402666:	85 ff                	test   %edi,%edi
  402668:	74 1f                	je     402689 <init_timeout+0x26>
  40266a:	85 ff                	test   %edi,%edi
  40266c:	79 05                	jns    402673 <init_timeout+0x10>
  40266e:	bb 00 00 00 00       	mov    $0x0,%ebx
  402673:	be 62 1d 40 00       	mov    $0x401d62,%esi
  402678:	bf 0e 00 00 00       	mov    $0xe,%edi
  40267d:	e8 0e e5 ff ff       	call   400b90 <signal@plt>
  402682:	89 df                	mov    %ebx,%edi
  402684:	e8 b7 e4 ff ff       	call   400b40 <alarm@plt>
  402689:	5b                   	pop    %rbx
  40268a:	c3                   	ret    

000000000040268b <init_driver>:
  40268b:	55                   	push   %rbp
  40268c:	53                   	push   %rbx
  40268d:	48 83 ec 18          	sub    $0x18,%rsp
  402691:	48 89 fd             	mov    %rdi,%rbp
  402694:	be 01 00 00 00       	mov    $0x1,%esi
  402699:	bf 0d 00 00 00       	mov    $0xd,%edi
  40269e:	e8 ed e4 ff ff       	call   400b90 <signal@plt>
  4026a3:	be 01 00 00 00       	mov    $0x1,%esi
  4026a8:	bf 1d 00 00 00       	mov    $0x1d,%edi
  4026ad:	e8 de e4 ff ff       	call   400b90 <signal@plt>
  4026b2:	be 01 00 00 00       	mov    $0x1,%esi
  4026b7:	bf 1d 00 00 00       	mov    $0x1d,%edi
  4026bc:	e8 cf e4 ff ff       	call   400b90 <signal@plt>
  4026c1:	ba 00 00 00 00       	mov    $0x0,%edx
  4026c6:	be 01 00 00 00       	mov    $0x1,%esi
  4026cb:	bf 02 00 00 00       	mov    $0x2,%edi
  4026d0:	e8 ab e5 ff ff       	call   400c80 <socket@plt>
  4026d5:	89 c3                	mov    %eax,%ebx
  4026d7:	85 c0                	test   %eax,%eax
  4026d9:	79 4f                	jns    40272a <init_driver+0x9f>
  4026db:	48 b8 45 72 72 6f 72 	movabs $0x43203a726f727245,%rax
  4026e2:	3a 20 43 
  4026e5:	48 89 45 00          	mov    %rax,0x0(%rbp)
  4026e9:	48 b8 6c 69 65 6e 74 	movabs $0x6e7520746e65696c,%rax
  4026f0:	20 75 6e 
  4026f3:	48 89 45 08          	mov    %rax,0x8(%rbp)
  4026f7:	48 b8 61 62 6c 65 20 	movabs $0x206f7420656c6261,%rax
  4026fe:	74 6f 20 
  402701:	48 89 45 10          	mov    %rax,0x10(%rbp)
  402705:	48 b8 63 72 65 61 74 	movabs $0x7320657461657263,%rax
  40270c:	65 20 73 
  40270f:	48 89 45 18          	mov    %rax,0x18(%rbp)
  402713:	c7 45 20 6f 63 6b 65 	movl   $0x656b636f,0x20(%rbp)
  40271a:	66 c7 45 24 74 00    	movw   $0x74,0x24(%rbp)
  402720:	b8 ff ff ff ff       	mov    $0xffffffff,%eax
  402725:	e9 f8 00 00 00       	jmp    402822 <init_driver+0x197>
  40272a:	bf e0 33 40 00       	mov    $0x4033e0,%edi
  40272f:	e8 6c e4 ff ff       	call   400ba0 <gethostbyname@plt>
  402734:	48 85 c0             	test   %rax,%rax
  402737:	75 68                	jne    4027a1 <init_driver+0x116>
  402739:	48 b8 45 72 72 6f 72 	movabs $0x44203a726f727245,%rax
  402740:	3a 20 44 
  402743:	48 89 45 00          	mov    %rax,0x0(%rbp)
  402747:	48 b8 4e 53 20 69 73 	movabs $0x6e7520736920534e,%rax
  40274e:	20 75 6e 
  402751:	48 89 45 08          	mov    %rax,0x8(%rbp)
  402755:	48 b8 61 62 6c 65 20 	movabs $0x206f7420656c6261,%rax
  40275c:	74 6f 20 
  40275f:	48 89 45 10          	mov    %rax,0x10(%rbp)
  402763:	48 b8 72 65 73 6f 6c 	movabs $0x2065766c6f736572,%rax
  40276a:	76 65 20 
  40276d:	48 89 45 18          	mov    %rax,0x18(%rbp)
  402771:	48 b8 73 65 72 76 65 	movabs $0x6120726576726573,%rax
  402778:	72 20 61 
  40277b:	48 89 45 20          	mov    %rax,0x20(%rbp)
  40277f:	c7 45 28 64 64 72 65 	movl   $0x65726464,0x28(%rbp)
  402786:	66 c7 45 2c 73 73    	movw   $0x7373,0x2c(%rbp)
  40278c:	c6 45 2e 00          	movb   $0x0,0x2e(%rbp)
  402790:	89 df                	mov    %ebx,%edi
  402792:	e8 b9 e3 ff ff       	call   400b50 <close@plt>
  402797:	b8 ff ff ff ff       	mov    $0xffffffff,%eax
  40279c:	e9 81 00 00 00       	jmp    402822 <init_driver+0x197>
  4027a1:	48 c7 04 24 00 00 00 	movq   $0x0,(%rsp)
  4027a8:	00 
  4027a9:	48 c7 44 24 08 00 00 	movq   $0x0,0x8(%rsp)
  4027b0:	00 00 
  4027b2:	66 c7 04 24 02 00    	movw   $0x2,(%rsp)
  4027b8:	48 8b 48 18          	mov    0x18(%rax),%rcx
  4027bc:	48 63 50 14          	movslq 0x14(%rax),%rdx
  4027c0:	48 8d 74 24 04       	lea    0x4(%rsp),%rsi
  4027c5:	48 8b 39             	mov    (%rcx),%rdi
  4027c8:	e8 33 e4 ff ff       	call   400c00 <bcopy@plt>
  4027cd:	66 c7 44 24 02 3b 6e 	movw   $0x6e3b,0x2(%rsp)
  4027d4:	ba 10 00 00 00       	mov    $0x10,%edx
  4027d9:	48 89 e6             	mov    %rsp,%rsi
  4027dc:	89 df                	mov    %ebx,%edi
  4027de:	e8 6d e4 ff ff       	call   400c50 <connect@plt>
  4027e3:	85 c0                	test   %eax,%eax
  4027e5:	79 25                	jns    40280c <init_driver+0x181>
  4027e7:	ba e0 33 40 00       	mov    $0x4033e0,%edx
  4027ec:	be a0 33 40 00       	mov    $0x4033a0,%esi
  4027f1:	48 89 ef             	mov    %rbp,%rdi
  4027f4:	b8 00 00 00 00       	mov    $0x0,%eax
  4027f9:	e8 32 e4 ff ff       	call   400c30 <sprintf@plt>
  4027fe:	89 df                	mov    %ebx,%edi
  402800:	e8 4b e3 ff ff       	call   400b50 <close@plt>
  402805:	b8 ff ff ff ff       	mov    $0xffffffff,%eax
  40280a:	eb 16                	jmp    402822 <init_driver+0x197>
  40280c:	89 df                	mov    %ebx,%edi
  40280e:	e8 3d e3 ff ff       	call   400b50 <close@plt>
  402813:	66 c7 45 00 4f 4b    	movw   $0x4b4f,0x0(%rbp)
  402819:	c6 45 02 00          	movb   $0x0,0x2(%rbp)
  40281d:	b8 00 00 00 00       	mov    $0x0,%eax
  402822:	48 83 c4 18          	add    $0x18,%rsp
  402826:	5b                   	pop    %rbx
  402827:	5d                   	pop    %rbp
  402828:	c3                   	ret    

0000000000402829 <driver_post>:
  402829:	53                   	push   %rbx
  40282a:	48 83 ec 10          	sub    $0x10,%rsp
  40282e:	4c 89 c3             	mov    %r8,%rbx
  402831:	85 c9                	test   %ecx,%ecx
  402833:	74 22                	je     402857 <driver_post+0x2e>
  402835:	48 89 d6             	mov    %rdx,%rsi
  402838:	bf f3 33 40 00       	mov    $0x4033f3,%edi
  40283d:	b8 00 00 00 00       	mov    $0x0,%eax
  402842:	e8 e9 e2 ff ff       	call   400b30 <printf@plt>
  402847:	66 c7 03 4f 4b       	movw   $0x4b4f,(%rbx)
  40284c:	c6 43 02 00          	movb   $0x0,0x2(%rbx)
  402850:	b8 00 00 00 00       	mov    $0x0,%eax
  402855:	eb 43                	jmp    40289a <driver_post+0x71>
  402857:	48 85 ff             	test   %rdi,%rdi
  40285a:	74 30                	je     40288c <driver_post+0x63>
  40285c:	80 3f 00             	cmpb   $0x0,(%rdi)
  40285f:	74 2b                	je     40288c <driver_post+0x63>
  402861:	4c 89 44 24 08       	mov    %r8,0x8(%rsp)
  402866:	48 89 14 24          	mov    %rdx,(%rsp)
  40286a:	41 b9 0a 34 40 00    	mov    $0x40340a,%r9d
  402870:	49 89 f0             	mov    %rsi,%r8
  402873:	48 89 f9             	mov    %rdi,%rcx
  402876:	ba 0f 34 40 00       	mov    $0x40340f,%edx
  40287b:	be 6e 3b 00 00       	mov    $0x3b6e,%esi
  402880:	bf e0 33 40 00       	mov    $0x4033e0,%edi
  402885:	e8 3f f7 ff ff       	call   401fc9 <submitr>
  40288a:	eb 0e                	jmp    40289a <driver_post+0x71>
  40288c:	66 c7 03 4f 4b       	movw   $0x4b4f,(%rbx)
  402891:	c6 43 02 00          	movb   $0x0,0x2(%rbx)
  402895:	b8 00 00 00 00       	mov    $0x0,%eax
  40289a:	48 83 c4 10          	add    $0x10,%rsp
  40289e:	5b                   	pop    %rbx
  40289f:	c3                   	ret    

00000000004028a0 <__libc_csu_init>:
  4028a0:	41 57                	push   %r15
  4028a2:	41 89 ff             	mov    %edi,%r15d
  4028a5:	41 56                	push   %r14
  4028a7:	49 89 f6             	mov    %rsi,%r14
  4028aa:	41 55                	push   %r13
  4028ac:	49 89 d5             	mov    %rdx,%r13
  4028af:	41 54                	push   %r12
  4028b1:	4c 8d 25 58 15 20 00 	lea    0x201558(%rip),%r12        # 603e10 <__frame_dummy_init_array_entry>
  4028b8:	55                   	push   %rbp
  4028b9:	48 8d 2d 58 15 20 00 	lea    0x201558(%rip),%rbp        # 603e18 <__do_global_dtors_aux_fini_array_entry>
  4028c0:	53                   	push   %rbx
  4028c1:	4c 29 e5             	sub    %r12,%rbp
  4028c4:	31 db                	xor    %ebx,%ebx
  4028c6:	48 c1 fd 03          	sar    $0x3,%rbp
  4028ca:	48 83 ec 08          	sub    $0x8,%rsp
  4028ce:	e8 c5 e1 ff ff       	call   400a98 <_init>
  4028d3:	48 85 ed             	test   %rbp,%rbp
  4028d6:	74 1e                	je     4028f6 <__libc_csu_init+0x56>
  4028d8:	0f 1f 84 00 00 00 00 	nopl   0x0(%rax,%rax,1)
  4028df:	00 
  4028e0:	4c 89 ea             	mov    %r13,%rdx
  4028e3:	4c 89 f6             	mov    %r14,%rsi
  4028e6:	44 89 ff             	mov    %r15d,%edi
  4028e9:	41 ff 14 dc          	call   *(%r12,%rbx,8)
  4028ed:	48 83 c3 01          	add    $0x1,%rbx
  4028f1:	48 39 eb             	cmp    %rbp,%rbx
  4028f4:	75 ea                	jne    4028e0 <__libc_csu_init+0x40>
  4028f6:	48 83 c4 08          	add    $0x8,%rsp
  4028fa:	5b                   	pop    %rbx
  4028fb:	5d                   	pop    %rbp
  4028fc:	41 5c                	pop    %r12
  4028fe:	41 5d                	pop    %r13
  402900:	41 5e                	pop    %r14
  402902:	41 5f                	pop    %r15
  402904:	c3                   	ret    
  402905:	90                   	nop
  402906:	66 2e 0f 1f 84 00 00 	cs nopw 0x0(%rax,%rax,1)
  40290d:	00 00 00 

0000000000402910 <__libc_csu_fini>:
  402910:	f3 c3                	repz ret 

Disassembly of section .fini:

0000000000402914 <_fini>:
  402914:	48 83 ec 08          	sub    $0x8,%rsp
  402918:	48 83 c4 08          	add    $0x8,%rsp
  40291c:	c3                   	ret    
