
rtarget:     file format elf64-x86-64


Disassembly of section .init:

0000000000400bc8 <_init>:
  400bc8:	48 83 ec 08          	sub    $0x8,%rsp
  400bcc:	48 8b 05 25 44 20 00 	mov    0x204425(%rip),%rax        # 604ff8 <__gmon_start__>
  400bd3:	48 85 c0             	test   %rax,%rax
  400bd6:	74 05                	je     400bdd <_init+0x15>
  400bd8:	e8 33 01 00 00       	call   400d10 <__gmon_start__@plt>
  400bdd:	48 83 c4 08          	add    $0x8,%rsp
  400be1:	c3                   	ret    

Disassembly of section .plt:

0000000000400bf0 <.plt>:
  400bf0:	ff 35 12 44 20 00    	push   0x204412(%rip)        # 605008 <_GLOBAL_OFFSET_TABLE_+0x8>
  400bf6:	ff 25 14 44 20 00    	jmp    *0x204414(%rip)        # 605010 <_GLOBAL_OFFSET_TABLE_+0x10>
  400bfc:	0f 1f 40 00          	nopl   0x0(%rax)

0000000000400c00 <strcasecmp@plt>:
  400c00:	ff 25 12 44 20 00    	jmp    *0x204412(%rip)        # 605018 <strcasecmp@GLIBC_2.2.5>
  400c06:	68 00 00 00 00       	push   $0x0
  400c0b:	e9 e0 ff ff ff       	jmp    400bf0 <.plt>

0000000000400c10 <__errno_location@plt>:
  400c10:	ff 25 0a 44 20 00    	jmp    *0x20440a(%rip)        # 605020 <__errno_location@GLIBC_2.2.5>
  400c16:	68 01 00 00 00       	push   $0x1
  400c1b:	e9 d0 ff ff ff       	jmp    400bf0 <.plt>

0000000000400c20 <srandom@plt>:
  400c20:	ff 25 02 44 20 00    	jmp    *0x204402(%rip)        # 605028 <srandom@GLIBC_2.2.5>
  400c26:	68 02 00 00 00       	push   $0x2
  400c2b:	e9 c0 ff ff ff       	jmp    400bf0 <.plt>

0000000000400c30 <strncmp@plt>:
  400c30:	ff 25 fa 43 20 00    	jmp    *0x2043fa(%rip)        # 605030 <strncmp@GLIBC_2.2.5>
  400c36:	68 03 00 00 00       	push   $0x3
  400c3b:	e9 b0 ff ff ff       	jmp    400bf0 <.plt>

0000000000400c40 <strcpy@plt>:
  400c40:	ff 25 f2 43 20 00    	jmp    *0x2043f2(%rip)        # 605038 <strcpy@GLIBC_2.2.5>
  400c46:	68 04 00 00 00       	push   $0x4
  400c4b:	e9 a0 ff ff ff       	jmp    400bf0 <.plt>

0000000000400c50 <puts@plt>:
  400c50:	ff 25 ea 43 20 00    	jmp    *0x2043ea(%rip)        # 605040 <puts@GLIBC_2.2.5>
  400c56:	68 05 00 00 00       	push   $0x5
  400c5b:	e9 90 ff ff ff       	jmp    400bf0 <.plt>

0000000000400c60 <write@plt>:
  400c60:	ff 25 e2 43 20 00    	jmp    *0x2043e2(%rip)        # 605048 <write@GLIBC_2.2.5>
  400c66:	68 06 00 00 00       	push   $0x6
  400c6b:	e9 80 ff ff ff       	jmp    400bf0 <.plt>

0000000000400c70 <mmap@plt>:
  400c70:	ff 25 da 43 20 00    	jmp    *0x2043da(%rip)        # 605050 <mmap@GLIBC_2.2.5>
  400c76:	68 07 00 00 00       	push   $0x7
  400c7b:	e9 70 ff ff ff       	jmp    400bf0 <.plt>

0000000000400c80 <printf@plt>:
  400c80:	ff 25 d2 43 20 00    	jmp    *0x2043d2(%rip)        # 605058 <printf@GLIBC_2.2.5>
  400c86:	68 08 00 00 00       	push   $0x8
  400c8b:	e9 60 ff ff ff       	jmp    400bf0 <.plt>

0000000000400c90 <memset@plt>:
  400c90:	ff 25 ca 43 20 00    	jmp    *0x2043ca(%rip)        # 605060 <memset@GLIBC_2.2.5>
  400c96:	68 09 00 00 00       	push   $0x9
  400c9b:	e9 50 ff ff ff       	jmp    400bf0 <.plt>

0000000000400ca0 <alarm@plt>:
  400ca0:	ff 25 c2 43 20 00    	jmp    *0x2043c2(%rip)        # 605068 <alarm@GLIBC_2.2.5>
  400ca6:	68 0a 00 00 00       	push   $0xa
  400cab:	e9 40 ff ff ff       	jmp    400bf0 <.plt>

0000000000400cb0 <close@plt>:
  400cb0:	ff 25 ba 43 20 00    	jmp    *0x2043ba(%rip)        # 605070 <close@GLIBC_2.2.5>
  400cb6:	68 0b 00 00 00       	push   $0xb
  400cbb:	e9 30 ff ff ff       	jmp    400bf0 <.plt>

0000000000400cc0 <read@plt>:
  400cc0:	ff 25 b2 43 20 00    	jmp    *0x2043b2(%rip)        # 605078 <read@GLIBC_2.2.5>
  400cc6:	68 0c 00 00 00       	push   $0xc
  400ccb:	e9 20 ff ff ff       	jmp    400bf0 <.plt>

0000000000400cd0 <__libc_start_main@plt>:
  400cd0:	ff 25 aa 43 20 00    	jmp    *0x2043aa(%rip)        # 605080 <__libc_start_main@GLIBC_2.2.5>
  400cd6:	68 0d 00 00 00       	push   $0xd
  400cdb:	e9 10 ff ff ff       	jmp    400bf0 <.plt>

0000000000400ce0 <signal@plt>:
  400ce0:	ff 25 a2 43 20 00    	jmp    *0x2043a2(%rip)        # 605088 <signal@GLIBC_2.2.5>
  400ce6:	68 0e 00 00 00       	push   $0xe
  400ceb:	e9 00 ff ff ff       	jmp    400bf0 <.plt>

0000000000400cf0 <gethostbyname@plt>:
  400cf0:	ff 25 9a 43 20 00    	jmp    *0x20439a(%rip)        # 605090 <gethostbyname@GLIBC_2.2.5>
  400cf6:	68 0f 00 00 00       	push   $0xf
  400cfb:	e9 f0 fe ff ff       	jmp    400bf0 <.plt>

0000000000400d00 <fprintf@plt>:
  400d00:	ff 25 92 43 20 00    	jmp    *0x204392(%rip)        # 605098 <fprintf@GLIBC_2.2.5>
  400d06:	68 10 00 00 00       	push   $0x10
  400d0b:	e9 e0 fe ff ff       	jmp    400bf0 <.plt>

0000000000400d10 <__gmon_start__@plt>:
  400d10:	ff 25 8a 43 20 00    	jmp    *0x20438a(%rip)        # 6050a0 <__gmon_start__>
  400d16:	68 11 00 00 00       	push   $0x11
  400d1b:	e9 d0 fe ff ff       	jmp    400bf0 <.plt>

0000000000400d20 <strtol@plt>:
  400d20:	ff 25 82 43 20 00    	jmp    *0x204382(%rip)        # 6050a8 <strtol@GLIBC_2.2.5>
  400d26:	68 12 00 00 00       	push   $0x12
  400d2b:	e9 c0 fe ff ff       	jmp    400bf0 <.plt>

0000000000400d30 <memcpy@plt>:
  400d30:	ff 25 7a 43 20 00    	jmp    *0x20437a(%rip)        # 6050b0 <memcpy@GLIBC_2.14>
  400d36:	68 13 00 00 00       	push   $0x13
  400d3b:	e9 b0 fe ff ff       	jmp    400bf0 <.plt>

0000000000400d40 <time@plt>:
  400d40:	ff 25 72 43 20 00    	jmp    *0x204372(%rip)        # 6050b8 <time@GLIBC_2.2.5>
  400d46:	68 14 00 00 00       	push   $0x14
  400d4b:	e9 a0 fe ff ff       	jmp    400bf0 <.plt>

0000000000400d50 <random@plt>:
  400d50:	ff 25 6a 43 20 00    	jmp    *0x20436a(%rip)        # 6050c0 <random@GLIBC_2.2.5>
  400d56:	68 15 00 00 00       	push   $0x15
  400d5b:	e9 90 fe ff ff       	jmp    400bf0 <.plt>

0000000000400d60 <_IO_getc@plt>:
  400d60:	ff 25 62 43 20 00    	jmp    *0x204362(%rip)        # 6050c8 <_IO_getc@GLIBC_2.2.5>
  400d66:	68 16 00 00 00       	push   $0x16
  400d6b:	e9 80 fe ff ff       	jmp    400bf0 <.plt>

0000000000400d70 <__isoc99_sscanf@plt>:
  400d70:	ff 25 5a 43 20 00    	jmp    *0x20435a(%rip)        # 6050d0 <__isoc99_sscanf@GLIBC_2.7>
  400d76:	68 17 00 00 00       	push   $0x17
  400d7b:	e9 70 fe ff ff       	jmp    400bf0 <.plt>

0000000000400d80 <munmap@plt>:
  400d80:	ff 25 52 43 20 00    	jmp    *0x204352(%rip)        # 6050d8 <munmap@GLIBC_2.2.5>
  400d86:	68 18 00 00 00       	push   $0x18
  400d8b:	e9 60 fe ff ff       	jmp    400bf0 <.plt>

0000000000400d90 <bcopy@plt>:
  400d90:	ff 25 4a 43 20 00    	jmp    *0x20434a(%rip)        # 6050e0 <bcopy@GLIBC_2.2.5>
  400d96:	68 19 00 00 00       	push   $0x19
  400d9b:	e9 50 fe ff ff       	jmp    400bf0 <.plt>

0000000000400da0 <fopen@plt>:
  400da0:	ff 25 42 43 20 00    	jmp    *0x204342(%rip)        # 6050e8 <fopen@GLIBC_2.2.5>
  400da6:	68 1a 00 00 00       	push   $0x1a
  400dab:	e9 40 fe ff ff       	jmp    400bf0 <.plt>

0000000000400db0 <getopt@plt>:
  400db0:	ff 25 3a 43 20 00    	jmp    *0x20433a(%rip)        # 6050f0 <getopt@GLIBC_2.2.5>
  400db6:	68 1b 00 00 00       	push   $0x1b
  400dbb:	e9 30 fe ff ff       	jmp    400bf0 <.plt>

0000000000400dc0 <strtoul@plt>:
  400dc0:	ff 25 32 43 20 00    	jmp    *0x204332(%rip)        # 6050f8 <strtoul@GLIBC_2.2.5>
  400dc6:	68 1c 00 00 00       	push   $0x1c
  400dcb:	e9 20 fe ff ff       	jmp    400bf0 <.plt>

0000000000400dd0 <gethostname@plt>:
  400dd0:	ff 25 2a 43 20 00    	jmp    *0x20432a(%rip)        # 605100 <gethostname@GLIBC_2.2.5>
  400dd6:	68 1d 00 00 00       	push   $0x1d
  400ddb:	e9 10 fe ff ff       	jmp    400bf0 <.plt>

0000000000400de0 <sprintf@plt>:
  400de0:	ff 25 22 43 20 00    	jmp    *0x204322(%rip)        # 605108 <sprintf@GLIBC_2.2.5>
  400de6:	68 1e 00 00 00       	push   $0x1e
  400deb:	e9 00 fe ff ff       	jmp    400bf0 <.plt>

0000000000400df0 <exit@plt>:
  400df0:	ff 25 1a 43 20 00    	jmp    *0x20431a(%rip)        # 605110 <exit@GLIBC_2.2.5>
  400df6:	68 1f 00 00 00       	push   $0x1f
  400dfb:	e9 f0 fd ff ff       	jmp    400bf0 <.plt>

0000000000400e00 <connect@plt>:
  400e00:	ff 25 12 43 20 00    	jmp    *0x204312(%rip)        # 605118 <connect@GLIBC_2.2.5>
  400e06:	68 20 00 00 00       	push   $0x20
  400e0b:	e9 e0 fd ff ff       	jmp    400bf0 <.plt>

0000000000400e10 <socket@plt>:
  400e10:	ff 25 0a 43 20 00    	jmp    *0x20430a(%rip)        # 605120 <socket@GLIBC_2.2.5>
  400e16:	68 21 00 00 00       	push   $0x21
  400e1b:	e9 d0 fd ff ff       	jmp    400bf0 <.plt>

Disassembly of section .text:

0000000000400e20 <_start>:
  400e20:	31 ed                	xor    %ebp,%ebp
  400e22:	49 89 d1             	mov    %rdx,%r9
  400e25:	5e                   	pop    %rsi
  400e26:	48 89 e2             	mov    %rsp,%rdx
  400e29:	48 83 e4 f0          	and    $0xfffffffffffffff0,%rsp
  400e2d:	50                   	push   %rax
  400e2e:	54                   	push   %rsp
  400e2f:	49 c7 c0 90 2c 40 00 	mov    $0x402c90,%r8
  400e36:	48 c7 c1 20 2c 40 00 	mov    $0x402c20,%rcx
  400e3d:	48 c7 c7 e0 10 40 00 	mov    $0x4010e0,%rdi
  400e44:	e8 87 fe ff ff       	call   400cd0 <__libc_start_main@plt>
  400e49:	f4                   	hlt    
  400e4a:	66 0f 1f 44 00 00    	nopw   0x0(%rax,%rax,1)

0000000000400e50 <deregister_tm_clones>:
  400e50:	b8 b7 54 60 00       	mov    $0x6054b7,%eax
  400e55:	55                   	push   %rbp
  400e56:	48 2d b0 54 60 00    	sub    $0x6054b0,%rax
  400e5c:	48 83 f8 0e          	cmp    $0xe,%rax
  400e60:	48 89 e5             	mov    %rsp,%rbp
  400e63:	77 02                	ja     400e67 <deregister_tm_clones+0x17>
  400e65:	5d                   	pop    %rbp
  400e66:	c3                   	ret    
  400e67:	b8 00 00 00 00       	mov    $0x0,%eax
  400e6c:	48 85 c0             	test   %rax,%rax
  400e6f:	74 f4                	je     400e65 <deregister_tm_clones+0x15>
  400e71:	5d                   	pop    %rbp
  400e72:	bf b0 54 60 00       	mov    $0x6054b0,%edi
  400e77:	ff e0                	jmp    *%rax
  400e79:	0f 1f 80 00 00 00 00 	nopl   0x0(%rax)

0000000000400e80 <register_tm_clones>:
  400e80:	b8 b0 54 60 00       	mov    $0x6054b0,%eax
  400e85:	55                   	push   %rbp
  400e86:	48 2d b0 54 60 00    	sub    $0x6054b0,%rax
  400e8c:	48 c1 f8 03          	sar    $0x3,%rax
  400e90:	48 89 e5             	mov    %rsp,%rbp
  400e93:	48 89 c2             	mov    %rax,%rdx
  400e96:	48 c1 ea 3f          	shr    $0x3f,%rdx
  400e9a:	48 01 d0             	add    %rdx,%rax
  400e9d:	48 d1 f8             	sar    %rax
  400ea0:	75 02                	jne    400ea4 <register_tm_clones+0x24>
  400ea2:	5d                   	pop    %rbp
  400ea3:	c3                   	ret    
  400ea4:	ba 00 00 00 00       	mov    $0x0,%edx
  400ea9:	48 85 d2             	test   %rdx,%rdx
  400eac:	74 f4                	je     400ea2 <register_tm_clones+0x22>
  400eae:	5d                   	pop    %rbp
  400eaf:	48 89 c6             	mov    %rax,%rsi
  400eb2:	bf b0 54 60 00       	mov    $0x6054b0,%edi
  400eb7:	ff e2                	jmp    *%rdx
  400eb9:	0f 1f 80 00 00 00 00 	nopl   0x0(%rax)

0000000000400ec0 <__do_global_dtors_aux>:
  400ec0:	80 3d 11 46 20 00 00 	cmpb   $0x0,0x204611(%rip)        # 6054d8 <completed.6355>
  400ec7:	75 11                	jne    400eda <__do_global_dtors_aux+0x1a>
  400ec9:	55                   	push   %rbp
  400eca:	48 89 e5             	mov    %rsp,%rbp
  400ecd:	e8 7e ff ff ff       	call   400e50 <deregister_tm_clones>
  400ed2:	5d                   	pop    %rbp
  400ed3:	c6 05 fe 45 20 00 01 	movb   $0x1,0x2045fe(%rip)        # 6054d8 <completed.6355>
  400eda:	f3 c3                	repz ret 
  400edc:	0f 1f 40 00          	nopl   0x0(%rax)

0000000000400ee0 <frame_dummy>:
  400ee0:	48 83 3d 38 3f 20 00 	cmpq   $0x0,0x203f38(%rip)        # 604e20 <__JCR_END__>
  400ee7:	00 
  400ee8:	74 1e                	je     400f08 <frame_dummy+0x28>
  400eea:	b8 00 00 00 00       	mov    $0x0,%eax
  400eef:	48 85 c0             	test   %rax,%rax
  400ef2:	74 14                	je     400f08 <frame_dummy+0x28>
  400ef4:	55                   	push   %rbp
  400ef5:	bf 20 4e 60 00       	mov    $0x604e20,%edi
  400efa:	48 89 e5             	mov    %rsp,%rbp
  400efd:	ff d0                	call   *%rax
  400eff:	5d                   	pop    %rbp
  400f00:	e9 7b ff ff ff       	jmp    400e80 <register_tm_clones>
  400f05:	0f 1f 00             	nopl   (%rax)
  400f08:	e9 73 ff ff ff       	jmp    400e80 <register_tm_clones>
  400f0d:	0f 1f 00             	nopl   (%rax)

0000000000400f10 <usage>:
  400f10:	48 83 ec 08          	sub    $0x8,%rsp
  400f14:	48 89 fe             	mov    %rdi,%rsi
  400f17:	83 3d ea 45 20 00 00 	cmpl   $0x0,0x2045ea(%rip)        # 605508 <is_checker>
  400f1e:	74 39                	je     400f59 <usage+0x49>
  400f20:	bf b0 2c 40 00       	mov    $0x402cb0,%edi
  400f25:	b8 00 00 00 00       	mov    $0x0,%eax
  400f2a:	e8 51 fd ff ff       	call   400c80 <printf@plt>
  400f2f:	bf e8 2c 40 00       	mov    $0x402ce8,%edi
  400f34:	e8 17 fd ff ff       	call   400c50 <puts@plt>
  400f39:	bf 60 2e 40 00       	mov    $0x402e60,%edi
  400f3e:	e8 0d fd ff ff       	call   400c50 <puts@plt>
  400f43:	bf 10 2d 40 00       	mov    $0x402d10,%edi
  400f48:	e8 03 fd ff ff       	call   400c50 <puts@plt>
  400f4d:	bf 7a 2e 40 00       	mov    $0x402e7a,%edi
  400f52:	e8 f9 fc ff ff       	call   400c50 <puts@plt>
  400f57:	eb 2d                	jmp    400f86 <usage+0x76>
  400f59:	bf 96 2e 40 00       	mov    $0x402e96,%edi
  400f5e:	b8 00 00 00 00       	mov    $0x0,%eax
  400f63:	e8 18 fd ff ff       	call   400c80 <printf@plt>
  400f68:	bf 38 2d 40 00       	mov    $0x402d38,%edi
  400f6d:	e8 de fc ff ff       	call   400c50 <puts@plt>
  400f72:	bf 60 2d 40 00       	mov    $0x402d60,%edi
  400f77:	e8 d4 fc ff ff       	call   400c50 <puts@plt>
  400f7c:	bf b4 2e 40 00       	mov    $0x402eb4,%edi
  400f81:	e8 ca fc ff ff       	call   400c50 <puts@plt>
  400f86:	bf 00 00 00 00       	mov    $0x0,%edi
  400f8b:	e8 60 fe ff ff       	call   400df0 <exit@plt>

0000000000400f90 <initialize_target>:
  400f90:	55                   	push   %rbp
  400f91:	53                   	push   %rbx
  400f92:	48 81 ec 08 21 00 00 	sub    $0x2108,%rsp
  400f99:	89 f5                	mov    %esi,%ebp
  400f9b:	89 3d 57 45 20 00    	mov    %edi,0x204557(%rip)        # 6054f8 <check_level>
  400fa1:	8b 3d c1 41 20 00    	mov    0x2041c1(%rip),%edi        # 605168 <target_id>
  400fa7:	e8 47 1c 00 00       	call   402bf3 <gencookie>
  400fac:	89 05 52 45 20 00    	mov    %eax,0x204552(%rip)        # 605504 <cookie>
  400fb2:	89 c7                	mov    %eax,%edi
  400fb4:	e8 3a 1c 00 00       	call   402bf3 <gencookie>
  400fb9:	89 05 41 45 20 00    	mov    %eax,0x204541(%rip)        # 605500 <authkey>
  400fbf:	8b 05 a3 41 20 00    	mov    0x2041a3(%rip),%eax        # 605168 <target_id>
  400fc5:	8d 78 01             	lea    0x1(%rax),%edi
  400fc8:	e8 53 fc ff ff       	call   400c20 <srandom@plt>
  400fcd:	e8 7e fd ff ff       	call   400d50 <random@plt>
  400fd2:	89 c7                	mov    %eax,%edi
  400fd4:	e8 ca 02 00 00       	call   4012a3 <scramble>
  400fd9:	89 c3                	mov    %eax,%ebx
  400fdb:	85 ed                	test   %ebp,%ebp
  400fdd:	74 18                	je     400ff7 <initialize_target+0x67>
  400fdf:	bf 00 00 00 00       	mov    $0x0,%edi
  400fe4:	e8 57 fd ff ff       	call   400d40 <time@plt>
  400fe9:	89 c7                	mov    %eax,%edi
  400feb:	e8 30 fc ff ff       	call   400c20 <srandom@plt>
  400ff0:	e8 5b fd ff ff       	call   400d50 <random@plt>
  400ff5:	eb 05                	jmp    400ffc <initialize_target+0x6c>
  400ff7:	b8 00 00 00 00       	mov    $0x0,%eax
  400ffc:	01 c3                	add    %eax,%ebx
  400ffe:	0f b7 db             	movzwl %bx,%ebx
  401001:	8d 04 dd 00 01 00 00 	lea    0x100(,%rbx,8),%eax
  401008:	89 c0                	mov    %eax,%eax
  40100a:	48 89 05 8f 44 20 00 	mov    %rax,0x20448f(%rip)        # 6054a0 <buf_offset>
  401011:	c6 05 10 51 20 00 72 	movb   $0x72,0x205110(%rip)        # 606128 <target_prefix>
  401018:	83 3d 89 44 20 00 00 	cmpl   $0x0,0x204489(%rip)        # 6054a8 <notify>
  40101f:	0f 84 b1 00 00 00    	je     4010d6 <initialize_target+0x146>
  401025:	83 3d dc 44 20 00 00 	cmpl   $0x0,0x2044dc(%rip)        # 605508 <is_checker>
  40102c:	0f 85 a4 00 00 00    	jne    4010d6 <initialize_target+0x146>
  401032:	be 00 01 00 00       	mov    $0x100,%esi
  401037:	48 89 e7             	mov    %rsp,%rdi
  40103a:	e8 91 fd ff ff       	call   400dd0 <gethostname@plt>
  40103f:	85 c0                	test   %eax,%eax
  401041:	74 25                	je     401068 <initialize_target+0xd8>
  401043:	bf 90 2d 40 00       	mov    $0x402d90,%edi
  401048:	e8 03 fc ff ff       	call   400c50 <puts@plt>
  40104d:	bf 08 00 00 00       	mov    $0x8,%edi
  401052:	e8 99 fd ff ff       	call   400df0 <exit@plt>
  401057:	48 89 e6             	mov    %rsp,%rsi
  40105a:	e8 a1 fb ff ff       	call   400c00 <strcasecmp@plt>
  40105f:	85 c0                	test   %eax,%eax
  401061:	74 21                	je     401084 <initialize_target+0xf4>
  401063:	83 c3 01             	add    $0x1,%ebx
  401066:	eb 05                	jmp    40106d <initialize_target+0xdd>
  401068:	bb 00 00 00 00       	mov    $0x0,%ebx
  40106d:	48 63 c3             	movslq %ebx,%rax
  401070:	48 8b 3c c5 80 51 60 	mov    0x605180(,%rax,8),%rdi
  401077:	00 
  401078:	48 85 ff             	test   %rdi,%rdi
  40107b:	75 da                	jne    401057 <initialize_target+0xc7>
  40107d:	b8 00 00 00 00       	mov    $0x0,%eax
  401082:	eb 05                	jmp    401089 <initialize_target+0xf9>
  401084:	b8 01 00 00 00       	mov    $0x1,%eax
  401089:	85 c0                	test   %eax,%eax
  40108b:	75 17                	jne    4010a4 <initialize_target+0x114>
  40108d:	48 89 e6             	mov    %rsp,%rsi
  401090:	bf c8 2d 40 00       	mov    $0x402dc8,%edi
  401095:	e8 e6 fb ff ff       	call   400c80 <printf@plt>
  40109a:	bf 08 00 00 00       	mov    $0x8,%edi
  40109f:	e8 4c fd ff ff       	call   400df0 <exit@plt>
  4010a4:	48 8d bc 24 00 01 00 	lea    0x100(%rsp),%rdi
  4010ab:	00 
  4010ac:	e8 d9 18 00 00       	call   40298a <init_driver>
  4010b1:	85 c0                	test   %eax,%eax
  4010b3:	79 21                	jns    4010d6 <initialize_target+0x146>
  4010b5:	48 8d b4 24 00 01 00 	lea    0x100(%rsp),%rsi
  4010bc:	00 
  4010bd:	bf 08 2e 40 00       	mov    $0x402e08,%edi
  4010c2:	b8 00 00 00 00       	mov    $0x0,%eax
  4010c7:	e8 b4 fb ff ff       	call   400c80 <printf@plt>
  4010cc:	bf 08 00 00 00       	mov    $0x8,%edi
  4010d1:	e8 1a fd ff ff       	call   400df0 <exit@plt>
  4010d6:	48 81 c4 08 21 00 00 	add    $0x2108,%rsp
  4010dd:	5b                   	pop    %rbx
  4010de:	5d                   	pop    %rbp
  4010df:	c3                   	ret    

00000000004010e0 <main>:
  4010e0:	41 56                	push   %r14
  4010e2:	41 55                	push   %r13
  4010e4:	41 54                	push   %r12
  4010e6:	55                   	push   %rbp
  4010e7:	53                   	push   %rbx
  4010e8:	41 89 fc             	mov    %edi,%r12d
  4010eb:	48 89 f3             	mov    %rsi,%rbx
  4010ee:	be b1 1d 40 00       	mov    $0x401db1,%esi
  4010f3:	bf 0b 00 00 00       	mov    $0xb,%edi
  4010f8:	e8 e3 fb ff ff       	call   400ce0 <signal@plt>
  4010fd:	be 63 1d 40 00       	mov    $0x401d63,%esi
  401102:	bf 07 00 00 00       	mov    $0x7,%edi
  401107:	e8 d4 fb ff ff       	call   400ce0 <signal@plt>
  40110c:	be ff 1d 40 00       	mov    $0x401dff,%esi
  401111:	bf 04 00 00 00       	mov    $0x4,%edi
  401116:	e8 c5 fb ff ff       	call   400ce0 <signal@plt>
  40111b:	83 3d e6 43 20 00 00 	cmpl   $0x0,0x2043e6(%rip)        # 605508 <is_checker>
  401122:	74 20                	je     401144 <main+0x64>
  401124:	be 4d 1e 40 00       	mov    $0x401e4d,%esi
  401129:	bf 0e 00 00 00       	mov    $0xe,%edi
  40112e:	e8 ad fb ff ff       	call   400ce0 <signal@plt>
  401133:	bf 05 00 00 00       	mov    $0x5,%edi
  401138:	e8 63 fb ff ff       	call   400ca0 <alarm@plt>
  40113d:	bd d2 2e 40 00       	mov    $0x402ed2,%ebp
  401142:	eb 05                	jmp    401149 <main+0x69>
  401144:	bd cd 2e 40 00       	mov    $0x402ecd,%ebp
  401149:	48 8b 05 70 43 20 00 	mov    0x204370(%rip),%rax        # 6054c0 <stdin@GLIBC_2.2.5>
  401150:	48 89 05 99 43 20 00 	mov    %rax,0x204399(%rip)        # 6054f0 <infile>
  401157:	41 bd 00 00 00 00    	mov    $0x0,%r13d
  40115d:	41 be 00 00 00 00    	mov    $0x0,%r14d
  401163:	e9 b9 00 00 00       	jmp    401221 <main+0x141>
  401168:	83 e8 61             	sub    $0x61,%eax
  40116b:	3c 10                	cmp    $0x10,%al
  40116d:	0f 87 93 00 00 00    	ja     401206 <main+0x126>
  401173:	0f b6 c0             	movzbl %al,%eax
  401176:	ff 24 c5 18 2f 40 00 	jmp    *0x402f18(,%rax,8)
  40117d:	48 8b 3b             	mov    (%rbx),%rdi
  401180:	e8 8b fd ff ff       	call   400f10 <usage>
  401185:	be 85 32 40 00       	mov    $0x403285,%esi
  40118a:	48 8b 3d 37 43 20 00 	mov    0x204337(%rip),%rdi        # 6054c8 <optarg@GLIBC_2.2.5>
  401191:	e8 0a fc ff ff       	call   400da0 <fopen@plt>
  401196:	48 89 05 53 43 20 00 	mov    %rax,0x204353(%rip)        # 6054f0 <infile>
  40119d:	48 85 c0             	test   %rax,%rax
  4011a0:	75 7f                	jne    401221 <main+0x141>
  4011a2:	48 8b 15 1f 43 20 00 	mov    0x20431f(%rip),%rdx        # 6054c8 <optarg@GLIBC_2.2.5>
  4011a9:	be da 2e 40 00       	mov    $0x402eda,%esi
  4011ae:	48 8b 3d 1b 43 20 00 	mov    0x20431b(%rip),%rdi        # 6054d0 <stderr@GLIBC_2.2.5>
  4011b5:	e8 46 fb ff ff       	call   400d00 <fprintf@plt>
  4011ba:	b8 01 00 00 00       	mov    $0x1,%eax
  4011bf:	e9 d6 00 00 00       	jmp    40129a <main+0x1ba>
  4011c4:	ba 10 00 00 00       	mov    $0x10,%edx
  4011c9:	be 00 00 00 00       	mov    $0x0,%esi
  4011ce:	48 8b 3d f3 42 20 00 	mov    0x2042f3(%rip),%rdi        # 6054c8 <optarg@GLIBC_2.2.5>
  4011d5:	e8 e6 fb ff ff       	call   400dc0 <strtoul@plt>
  4011da:	41 89 c6             	mov    %eax,%r14d
  4011dd:	eb 42                	jmp    401221 <main+0x141>
  4011df:	ba 0a 00 00 00       	mov    $0xa,%edx
  4011e4:	be 00 00 00 00       	mov    $0x0,%esi
  4011e9:	48 8b 3d d8 42 20 00 	mov    0x2042d8(%rip),%rdi        # 6054c8 <optarg@GLIBC_2.2.5>
  4011f0:	e8 2b fb ff ff       	call   400d20 <strtol@plt>
  4011f5:	41 89 c5             	mov    %eax,%r13d
  4011f8:	eb 27                	jmp    401221 <main+0x141>
  4011fa:	c7 05 a4 42 20 00 00 	movl   $0x0,0x2042a4(%rip)        # 6054a8 <notify>
  401201:	00 00 00 
  401204:	eb 1b                	jmp    401221 <main+0x141>
  401206:	40 0f be f6          	movsbl %sil,%esi
  40120a:	bf f7 2e 40 00       	mov    $0x402ef7,%edi
  40120f:	b8 00 00 00 00       	mov    $0x0,%eax
  401214:	e8 67 fa ff ff       	call   400c80 <printf@plt>
  401219:	48 8b 3b             	mov    (%rbx),%rdi
  40121c:	e8 ef fc ff ff       	call   400f10 <usage>
  401221:	48 89 ea             	mov    %rbp,%rdx
  401224:	48 89 de             	mov    %rbx,%rsi
  401227:	44 89 e7             	mov    %r12d,%edi
  40122a:	e8 81 fb ff ff       	call   400db0 <getopt@plt>
  40122f:	89 c6                	mov    %eax,%esi
  401231:	3c ff                	cmp    $0xff,%al
  401233:	0f 85 2f ff ff ff    	jne    401168 <main+0x88>
  401239:	be 01 00 00 00       	mov    $0x1,%esi
  40123e:	44 89 ef             	mov    %r13d,%edi
  401241:	e8 4a fd ff ff       	call   400f90 <initialize_target>
  401246:	83 3d bb 42 20 00 00 	cmpl   $0x0,0x2042bb(%rip)        # 605508 <is_checker>
  40124d:	74 25                	je     401274 <main+0x194>
  40124f:	44 3b 35 aa 42 20 00 	cmp    0x2042aa(%rip),%r14d        # 605500 <authkey>
  401256:	74 1c                	je     401274 <main+0x194>
  401258:	44 89 f6             	mov    %r14d,%esi
  40125b:	bf 30 2e 40 00       	mov    $0x402e30,%edi
  401260:	b8 00 00 00 00       	mov    $0x0,%eax
  401265:	e8 16 fa ff ff       	call   400c80 <printf@plt>
  40126a:	b8 00 00 00 00       	mov    $0x0,%eax
  40126f:	e8 f7 07 00 00       	call   401a6b <check_fail>
  401274:	8b 35 8a 42 20 00    	mov    0x20428a(%rip),%esi        # 605504 <cookie>
  40127a:	bf 0a 2f 40 00       	mov    $0x402f0a,%edi
  40127f:	b8 00 00 00 00       	mov    $0x0,%eax
  401284:	e8 f7 f9 ff ff       	call   400c80 <printf@plt>
  401289:	48 8b 3d 10 42 20 00 	mov    0x204210(%rip),%rdi        # 6054a0 <buf_offset>
  401290:	e8 06 0c 00 00       	call   401e9b <launch>
  401295:	b8 00 00 00 00       	mov    $0x0,%eax
  40129a:	5b                   	pop    %rbx
  40129b:	5d                   	pop    %rbp
  40129c:	41 5c                	pop    %r12
  40129e:	41 5d                	pop    %r13
  4012a0:	41 5e                	pop    %r14
  4012a2:	c3                   	ret    

00000000004012a3 <scramble>:
  4012a3:	b8 00 00 00 00       	mov    $0x0,%eax
  4012a8:	eb 11                	jmp    4012bb <scramble+0x18>
  4012aa:	69 c8 66 b4 00 00    	imul   $0xb466,%eax,%ecx
  4012b0:	01 f9                	add    %edi,%ecx
  4012b2:	89 c2                	mov    %eax,%edx
  4012b4:	89 4c 94 d0          	mov    %ecx,-0x30(%rsp,%rdx,4)
  4012b8:	83 c0 01             	add    $0x1,%eax
  4012bb:	83 f8 09             	cmp    $0x9,%eax
  4012be:	76 ea                	jbe    4012aa <scramble+0x7>
  4012c0:	8b 44 24 ec          	mov    -0x14(%rsp),%eax
  4012c4:	69 c0 85 21 00 00    	imul   $0x2185,%eax,%eax
  4012ca:	89 44 24 ec          	mov    %eax,-0x14(%rsp)
  4012ce:	8b 44 24 f0          	mov    -0x10(%rsp),%eax
  4012d2:	69 c0 28 05 00 00    	imul   $0x528,%eax,%eax
  4012d8:	89 44 24 f0          	mov    %eax,-0x10(%rsp)
  4012dc:	8b 44 24 dc          	mov    -0x24(%rsp),%eax
  4012e0:	69 c0 3a e8 00 00    	imul   $0xe83a,%eax,%eax
  4012e6:	89 44 24 dc          	mov    %eax,-0x24(%rsp)
  4012ea:	8b 44 24 d8          	mov    -0x28(%rsp),%eax
  4012ee:	69 c0 90 81 00 00    	imul   $0x8190,%eax,%eax
  4012f4:	89 44 24 d8          	mov    %eax,-0x28(%rsp)
  4012f8:	8b 44 24 e4          	mov    -0x1c(%rsp),%eax
  4012fc:	69 c0 8a b3 00 00    	imul   $0xb38a,%eax,%eax
  401302:	89 44 24 e4          	mov    %eax,-0x1c(%rsp)
  401306:	8b 44 24 dc          	mov    -0x24(%rsp),%eax
  40130a:	69 c0 b0 1e 00 00    	imul   $0x1eb0,%eax,%eax
  401310:	89 44 24 dc          	mov    %eax,-0x24(%rsp)
  401314:	8b 44 24 e0          	mov    -0x20(%rsp),%eax
  401318:	69 c0 76 bd 00 00    	imul   $0xbd76,%eax,%eax
  40131e:	89 44 24 e0          	mov    %eax,-0x20(%rsp)
  401322:	8b 44 24 d8          	mov    -0x28(%rsp),%eax
  401326:	69 c0 bb 6f 00 00    	imul   $0x6fbb,%eax,%eax
  40132c:	89 44 24 d8          	mov    %eax,-0x28(%rsp)
  401330:	8b 44 24 e4          	mov    -0x1c(%rsp),%eax
  401334:	69 c0 39 34 00 00    	imul   $0x3439,%eax,%eax
  40133a:	89 44 24 e4          	mov    %eax,-0x1c(%rsp)
  40133e:	8b 44 24 e8          	mov    -0x18(%rsp),%eax
  401342:	69 c0 00 71 00 00    	imul   $0x7100,%eax,%eax
  401348:	89 44 24 e8          	mov    %eax,-0x18(%rsp)
  40134c:	8b 44 24 f0          	mov    -0x10(%rsp),%eax
  401350:	69 c0 10 77 00 00    	imul   $0x7710,%eax,%eax
  401356:	89 44 24 f0          	mov    %eax,-0x10(%rsp)
  40135a:	8b 44 24 f0          	mov    -0x10(%rsp),%eax
  40135e:	69 c0 f5 58 00 00    	imul   $0x58f5,%eax,%eax
  401364:	89 44 24 f0          	mov    %eax,-0x10(%rsp)
  401368:	8b 44 24 d8          	mov    -0x28(%rsp),%eax
  40136c:	69 c0 85 72 00 00    	imul   $0x7285,%eax,%eax
  401372:	89 44 24 d8          	mov    %eax,-0x28(%rsp)
  401376:	8b 44 24 e0          	mov    -0x20(%rsp),%eax
  40137a:	69 c0 d4 02 00 00    	imul   $0x2d4,%eax,%eax
  401380:	89 44 24 e0          	mov    %eax,-0x20(%rsp)
  401384:	8b 44 24 ec          	mov    -0x14(%rsp),%eax
  401388:	69 c0 5f 21 00 00    	imul   $0x215f,%eax,%eax
  40138e:	89 44 24 ec          	mov    %eax,-0x14(%rsp)
  401392:	8b 44 24 d0          	mov    -0x30(%rsp),%eax
  401396:	69 c0 28 b0 00 00    	imul   $0xb028,%eax,%eax
  40139c:	89 44 24 d0          	mov    %eax,-0x30(%rsp)
  4013a0:	8b 44 24 d0          	mov    -0x30(%rsp),%eax
  4013a4:	69 c0 f1 c9 00 00    	imul   $0xc9f1,%eax,%eax
  4013aa:	89 44 24 d0          	mov    %eax,-0x30(%rsp)
  4013ae:	8b 44 24 f4          	mov    -0xc(%rsp),%eax
  4013b2:	69 c0 2c 76 00 00    	imul   $0x762c,%eax,%eax
  4013b8:	89 44 24 f4          	mov    %eax,-0xc(%rsp)
  4013bc:	8b 44 24 dc          	mov    -0x24(%rsp),%eax
  4013c0:	69 c0 99 0b 00 00    	imul   $0xb99,%eax,%eax
  4013c6:	89 44 24 dc          	mov    %eax,-0x24(%rsp)
  4013ca:	8b 44 24 d4          	mov    -0x2c(%rsp),%eax
  4013ce:	69 c0 e7 40 00 00    	imul   $0x40e7,%eax,%eax
  4013d4:	89 44 24 d4          	mov    %eax,-0x2c(%rsp)
  4013d8:	8b 44 24 d0          	mov    -0x30(%rsp),%eax
  4013dc:	69 c0 1c 34 00 00    	imul   $0x341c,%eax,%eax
  4013e2:	89 44 24 d0          	mov    %eax,-0x30(%rsp)
  4013e6:	8b 44 24 d0          	mov    -0x30(%rsp),%eax
  4013ea:	69 c0 02 4c 00 00    	imul   $0x4c02,%eax,%eax
  4013f0:	89 44 24 d0          	mov    %eax,-0x30(%rsp)
  4013f4:	8b 44 24 d8          	mov    -0x28(%rsp),%eax
  4013f8:	69 c0 ae 6e 00 00    	imul   $0x6eae,%eax,%eax
  4013fe:	89 44 24 d8          	mov    %eax,-0x28(%rsp)
  401402:	8b 44 24 f4          	mov    -0xc(%rsp),%eax
  401406:	69 c0 16 6f 00 00    	imul   $0x6f16,%eax,%eax
  40140c:	89 44 24 f4          	mov    %eax,-0xc(%rsp)
  401410:	8b 44 24 ec          	mov    -0x14(%rsp),%eax
  401414:	69 c0 9f 20 00 00    	imul   $0x209f,%eax,%eax
  40141a:	89 44 24 ec          	mov    %eax,-0x14(%rsp)
  40141e:	8b 44 24 f4          	mov    -0xc(%rsp),%eax
  401422:	69 c0 47 f8 00 00    	imul   $0xf847,%eax,%eax
  401428:	89 44 24 f4          	mov    %eax,-0xc(%rsp)
  40142c:	8b 44 24 f0          	mov    -0x10(%rsp),%eax
  401430:	69 c0 85 24 00 00    	imul   $0x2485,%eax,%eax
  401436:	89 44 24 f0          	mov    %eax,-0x10(%rsp)
  40143a:	8b 44 24 dc          	mov    -0x24(%rsp),%eax
  40143e:	69 c0 42 b9 00 00    	imul   $0xb942,%eax,%eax
  401444:	89 44 24 dc          	mov    %eax,-0x24(%rsp)
  401448:	8b 44 24 f0          	mov    -0x10(%rsp),%eax
  40144c:	69 c0 d1 6a 00 00    	imul   $0x6ad1,%eax,%eax
  401452:	89 44 24 f0          	mov    %eax,-0x10(%rsp)
  401456:	8b 44 24 f0          	mov    -0x10(%rsp),%eax
  40145a:	69 c0 cd 92 00 00    	imul   $0x92cd,%eax,%eax
  401460:	89 44 24 f0          	mov    %eax,-0x10(%rsp)
  401464:	8b 44 24 dc          	mov    -0x24(%rsp),%eax
  401468:	69 c0 2a 61 00 00    	imul   $0x612a,%eax,%eax
  40146e:	89 44 24 dc          	mov    %eax,-0x24(%rsp)
  401472:	8b 44 24 e4          	mov    -0x1c(%rsp),%eax
  401476:	69 c0 14 cf 00 00    	imul   $0xcf14,%eax,%eax
  40147c:	89 44 24 e4          	mov    %eax,-0x1c(%rsp)
  401480:	8b 44 24 d4          	mov    -0x2c(%rsp),%eax
  401484:	69 c0 45 f8 00 00    	imul   $0xf845,%eax,%eax
  40148a:	89 44 24 d4          	mov    %eax,-0x2c(%rsp)
  40148e:	8b 44 24 d0          	mov    -0x30(%rsp),%eax
  401492:	69 c0 46 dd 00 00    	imul   $0xdd46,%eax,%eax
  401498:	89 44 24 d0          	mov    %eax,-0x30(%rsp)
  40149c:	8b 44 24 d0          	mov    -0x30(%rsp),%eax
  4014a0:	69 c0 fe 3c 00 00    	imul   $0x3cfe,%eax,%eax
  4014a6:	89 44 24 d0          	mov    %eax,-0x30(%rsp)
  4014aa:	8b 44 24 e8          	mov    -0x18(%rsp),%eax
  4014ae:	69 c0 01 c3 00 00    	imul   $0xc301,%eax,%eax
  4014b4:	89 44 24 e8          	mov    %eax,-0x18(%rsp)
  4014b8:	8b 44 24 d0          	mov    -0x30(%rsp),%eax
  4014bc:	69 c0 c6 7d 00 00    	imul   $0x7dc6,%eax,%eax
  4014c2:	89 44 24 d0          	mov    %eax,-0x30(%rsp)
  4014c6:	8b 44 24 e8          	mov    -0x18(%rsp),%eax
  4014ca:	69 c0 ac 62 00 00    	imul   $0x62ac,%eax,%eax
  4014d0:	89 44 24 e8          	mov    %eax,-0x18(%rsp)
  4014d4:	8b 44 24 d0          	mov    -0x30(%rsp),%eax
  4014d8:	69 c0 c2 ca 00 00    	imul   $0xcac2,%eax,%eax
  4014de:	89 44 24 d0          	mov    %eax,-0x30(%rsp)
  4014e2:	8b 44 24 dc          	mov    -0x24(%rsp),%eax
  4014e6:	69 c0 5c 8f 00 00    	imul   $0x8f5c,%eax,%eax
  4014ec:	89 44 24 dc          	mov    %eax,-0x24(%rsp)
  4014f0:	8b 44 24 e4          	mov    -0x1c(%rsp),%eax
  4014f4:	69 c0 d9 b1 00 00    	imul   $0xb1d9,%eax,%eax
  4014fa:	89 44 24 e4          	mov    %eax,-0x1c(%rsp)
  4014fe:	8b 44 24 dc          	mov    -0x24(%rsp),%eax
  401502:	69 c0 11 83 00 00    	imul   $0x8311,%eax,%eax
  401508:	89 44 24 dc          	mov    %eax,-0x24(%rsp)
  40150c:	8b 44 24 e4          	mov    -0x1c(%rsp),%eax
  401510:	69 c0 e0 d8 00 00    	imul   $0xd8e0,%eax,%eax
  401516:	89 44 24 e4          	mov    %eax,-0x1c(%rsp)
  40151a:	8b 44 24 e4          	mov    -0x1c(%rsp),%eax
  40151e:	69 c0 6a 6d 00 00    	imul   $0x6d6a,%eax,%eax
  401524:	89 44 24 e4          	mov    %eax,-0x1c(%rsp)
  401528:	8b 44 24 e4          	mov    -0x1c(%rsp),%eax
  40152c:	69 c0 69 f8 00 00    	imul   $0xf869,%eax,%eax
  401532:	89 44 24 e4          	mov    %eax,-0x1c(%rsp)
  401536:	8b 44 24 d4          	mov    -0x2c(%rsp),%eax
  40153a:	69 c0 e1 cf 00 00    	imul   $0xcfe1,%eax,%eax
  401540:	89 44 24 d4          	mov    %eax,-0x2c(%rsp)
  401544:	8b 44 24 ec          	mov    -0x14(%rsp),%eax
  401548:	69 c0 2c 43 00 00    	imul   $0x432c,%eax,%eax
  40154e:	89 44 24 ec          	mov    %eax,-0x14(%rsp)
  401552:	8b 44 24 e4          	mov    -0x1c(%rsp),%eax
  401556:	69 c0 ae 84 00 00    	imul   $0x84ae,%eax,%eax
  40155c:	89 44 24 e4          	mov    %eax,-0x1c(%rsp)
  401560:	8b 44 24 dc          	mov    -0x24(%rsp),%eax
  401564:	69 c0 36 e4 00 00    	imul   $0xe436,%eax,%eax
  40156a:	89 44 24 dc          	mov    %eax,-0x24(%rsp)
  40156e:	8b 44 24 f0          	mov    -0x10(%rsp),%eax
  401572:	69 c0 4f 3f 00 00    	imul   $0x3f4f,%eax,%eax
  401578:	89 44 24 f0          	mov    %eax,-0x10(%rsp)
  40157c:	8b 44 24 d0          	mov    -0x30(%rsp),%eax
  401580:	69 c0 23 80 00 00    	imul   $0x8023,%eax,%eax
  401586:	89 44 24 d0          	mov    %eax,-0x30(%rsp)
  40158a:	8b 44 24 ec          	mov    -0x14(%rsp),%eax
  40158e:	69 c0 4e 92 00 00    	imul   $0x924e,%eax,%eax
  401594:	89 44 24 ec          	mov    %eax,-0x14(%rsp)
  401598:	8b 44 24 d8          	mov    -0x28(%rsp),%eax
  40159c:	69 c0 54 11 00 00    	imul   $0x1154,%eax,%eax
  4015a2:	89 44 24 d8          	mov    %eax,-0x28(%rsp)
  4015a6:	8b 44 24 e0          	mov    -0x20(%rsp),%eax
  4015aa:	69 c0 5d ea 00 00    	imul   $0xea5d,%eax,%eax
  4015b0:	89 44 24 e0          	mov    %eax,-0x20(%rsp)
  4015b4:	8b 44 24 d4          	mov    -0x2c(%rsp),%eax
  4015b8:	69 c0 bd c6 00 00    	imul   $0xc6bd,%eax,%eax
  4015be:	89 44 24 d4          	mov    %eax,-0x2c(%rsp)
  4015c2:	8b 44 24 d8          	mov    -0x28(%rsp),%eax
  4015c6:	69 c0 78 c7 00 00    	imul   $0xc778,%eax,%eax
  4015cc:	89 44 24 d8          	mov    %eax,-0x28(%rsp)
  4015d0:	8b 44 24 e4          	mov    -0x1c(%rsp),%eax
  4015d4:	69 c0 5d 01 00 00    	imul   $0x15d,%eax,%eax
  4015da:	89 44 24 e4          	mov    %eax,-0x1c(%rsp)
  4015de:	8b 44 24 d4          	mov    -0x2c(%rsp),%eax
  4015e2:	69 c0 f5 4e 00 00    	imul   $0x4ef5,%eax,%eax
  4015e8:	89 44 24 d4          	mov    %eax,-0x2c(%rsp)
  4015ec:	8b 44 24 dc          	mov    -0x24(%rsp),%eax
  4015f0:	69 c0 dc 86 00 00    	imul   $0x86dc,%eax,%eax
  4015f6:	89 44 24 dc          	mov    %eax,-0x24(%rsp)
  4015fa:	8b 44 24 e4          	mov    -0x1c(%rsp),%eax
  4015fe:	69 c0 ee 1d 00 00    	imul   $0x1dee,%eax,%eax
  401604:	89 44 24 e4          	mov    %eax,-0x1c(%rsp)
  401608:	8b 44 24 e4          	mov    -0x1c(%rsp),%eax
  40160c:	69 c0 96 bc 00 00    	imul   $0xbc96,%eax,%eax
  401612:	89 44 24 e4          	mov    %eax,-0x1c(%rsp)
  401616:	8b 44 24 d0          	mov    -0x30(%rsp),%eax
  40161a:	69 c0 d9 d8 00 00    	imul   $0xd8d9,%eax,%eax
  401620:	89 44 24 d0          	mov    %eax,-0x30(%rsp)
  401624:	8b 44 24 e4          	mov    -0x1c(%rsp),%eax
  401628:	69 c0 c4 8c 00 00    	imul   $0x8cc4,%eax,%eax
  40162e:	89 44 24 e4          	mov    %eax,-0x1c(%rsp)
  401632:	8b 44 24 e4          	mov    -0x1c(%rsp),%eax
  401636:	69 c0 33 3b 00 00    	imul   $0x3b33,%eax,%eax
  40163c:	89 44 24 e4          	mov    %eax,-0x1c(%rsp)
  401640:	8b 44 24 e0          	mov    -0x20(%rsp),%eax
  401644:	69 c0 7c bf 00 00    	imul   $0xbf7c,%eax,%eax
  40164a:	89 44 24 e0          	mov    %eax,-0x20(%rsp)
  40164e:	8b 44 24 e4          	mov    -0x1c(%rsp),%eax
  401652:	69 c0 2f 92 00 00    	imul   $0x922f,%eax,%eax
  401658:	89 44 24 e4          	mov    %eax,-0x1c(%rsp)
  40165c:	8b 44 24 d0          	mov    -0x30(%rsp),%eax
  401660:	69 c0 d3 7c 00 00    	imul   $0x7cd3,%eax,%eax
  401666:	89 44 24 d0          	mov    %eax,-0x30(%rsp)
  40166a:	8b 44 24 f4          	mov    -0xc(%rsp),%eax
  40166e:	69 c0 88 3d 00 00    	imul   $0x3d88,%eax,%eax
  401674:	89 44 24 f4          	mov    %eax,-0xc(%rsp)
  401678:	8b 44 24 f0          	mov    -0x10(%rsp),%eax
  40167c:	69 c0 78 19 00 00    	imul   $0x1978,%eax,%eax
  401682:	89 44 24 f0          	mov    %eax,-0x10(%rsp)
  401686:	8b 44 24 ec          	mov    -0x14(%rsp),%eax
  40168a:	69 c0 3e 6a 00 00    	imul   $0x6a3e,%eax,%eax
  401690:	89 44 24 ec          	mov    %eax,-0x14(%rsp)
  401694:	8b 44 24 e8          	mov    -0x18(%rsp),%eax
  401698:	69 c0 9f a1 00 00    	imul   $0xa19f,%eax,%eax
  40169e:	89 44 24 e8          	mov    %eax,-0x18(%rsp)
  4016a2:	8b 44 24 f0          	mov    -0x10(%rsp),%eax
  4016a6:	69 c0 cc 58 00 00    	imul   $0x58cc,%eax,%eax
  4016ac:	89 44 24 f0          	mov    %eax,-0x10(%rsp)
  4016b0:	8b 44 24 ec          	mov    -0x14(%rsp),%eax
  4016b4:	69 c0 3f 7c 00 00    	imul   $0x7c3f,%eax,%eax
  4016ba:	89 44 24 ec          	mov    %eax,-0x14(%rsp)
  4016be:	8b 44 24 dc          	mov    -0x24(%rsp),%eax
  4016c2:	69 c0 39 7d 00 00    	imul   $0x7d39,%eax,%eax
  4016c8:	89 44 24 dc          	mov    %eax,-0x24(%rsp)
  4016cc:	8b 44 24 f4          	mov    -0xc(%rsp),%eax
  4016d0:	69 c0 21 64 00 00    	imul   $0x6421,%eax,%eax
  4016d6:	89 44 24 f4          	mov    %eax,-0xc(%rsp)
  4016da:	8b 44 24 dc          	mov    -0x24(%rsp),%eax
  4016de:	69 c0 60 82 00 00    	imul   $0x8260,%eax,%eax
  4016e4:	89 44 24 dc          	mov    %eax,-0x24(%rsp)
  4016e8:	8b 44 24 e4          	mov    -0x1c(%rsp),%eax
  4016ec:	69 c0 f6 88 00 00    	imul   $0x88f6,%eax,%eax
  4016f2:	89 44 24 e4          	mov    %eax,-0x1c(%rsp)
  4016f6:	8b 44 24 f4          	mov    -0xc(%rsp),%eax
  4016fa:	69 c0 7a 20 00 00    	imul   $0x207a,%eax,%eax
  401700:	89 44 24 f4          	mov    %eax,-0xc(%rsp)
  401704:	8b 44 24 e4          	mov    -0x1c(%rsp),%eax
  401708:	69 c0 c1 b8 00 00    	imul   $0xb8c1,%eax,%eax
  40170e:	89 44 24 e4          	mov    %eax,-0x1c(%rsp)
  401712:	8b 44 24 e4          	mov    -0x1c(%rsp),%eax
  401716:	69 c0 b6 86 00 00    	imul   $0x86b6,%eax,%eax
  40171c:	89 44 24 e4          	mov    %eax,-0x1c(%rsp)
  401720:	ba 00 00 00 00       	mov    $0x0,%edx
  401725:	b8 00 00 00 00       	mov    $0x0,%eax
  40172a:	eb 0b                	jmp    401737 <scramble+0x494>
  40172c:	89 d1                	mov    %edx,%ecx
  40172e:	8b 4c 8c d0          	mov    -0x30(%rsp,%rcx,4),%ecx
  401732:	01 c8                	add    %ecx,%eax
  401734:	83 c2 01             	add    $0x1,%edx
  401737:	83 fa 09             	cmp    $0x9,%edx
  40173a:	76 f0                	jbe    40172c <scramble+0x489>
  40173c:	f3 c3                	repz ret 

pop: 40296a
401780

000000000040173e <getbuf>:
  40173e:	48 83 ec 28          	sub    $0x28,%rsp
  401742:	48 89 e7             	mov    %rsp,%rdi
  401745:	e8 50 03 00 00       	call   401a9a <Gets>
  40174a:	b8 01 00 00 00       	mov    $0x1,%eax
  40174f:	48 83 c4 28          	add    $0x28,%rsp
  401753:	c3                   	ret    

0000000000401754 <touch1>:
  401754:	48 83 ec 08          	sub    $0x8,%rsp
  401758:	c7 05 9a 3d 20 00 01 	movl   $0x1,0x203d9a(%rip)        # 6054fc <vlevel>
  40175f:	00 00 00 
  401762:	bf d7 30 40 00       	mov    $0x4030d7,%edi
  401767:	e8 e4 f4 ff ff       	call   400c50 <puts@plt>
  40176c:	bf 01 00 00 00       	mov    $0x1,%edi
  401771:	e8 13 05 00 00       	call   401c89 <validate>
  401776:	bf 00 00 00 00       	mov    $0x0,%edi
  40177b:	e8 70 f6 ff ff       	call   400df0 <exit@plt>

0000000000401780 <touch2>:
  401780:	48 83 ec 08          	sub    $0x8,%rsp
  401784:	89 fe                	mov    %edi,%esi
  401786:	c7 05 6c 3d 20 00 02 	movl   $0x2,0x203d6c(%rip)        # 6054fc <vlevel>
  40178d:	00 00 00 
  401790:	3b 3d 6e 3d 20 00    	cmp    0x203d6e(%rip),%edi        # 605504 <cookie>
  401796:	75 1b                	jne    4017b3 <touch2+0x33>
  401798:	bf 00 31 40 00       	mov    $0x403100,%edi
  40179d:	b8 00 00 00 00       	mov    $0x0,%eax
  4017a2:	e8 d9 f4 ff ff       	call   400c80 <printf@plt>
  4017a7:	bf 02 00 00 00       	mov    $0x2,%edi
  4017ac:	e8 d8 04 00 00       	call   401c89 <validate>
  4017b1:	eb 19                	jmp    4017cc <touch2+0x4c>
  4017b3:	bf 28 31 40 00       	mov    $0x403128,%edi
  4017b8:	b8 00 00 00 00       	mov    $0x0,%eax
  4017bd:	e8 be f4 ff ff       	call   400c80 <printf@plt>
  4017c2:	bf 02 00 00 00       	mov    $0x2,%edi
  4017c7:	e8 6f 05 00 00       	call   401d3b <fail>
  4017cc:	bf 00 00 00 00       	mov    $0x0,%edi
  4017d1:	e8 1a f6 ff ff       	call   400df0 <exit@plt>

00000000004017d6 <hexmatch>:
  4017d6:	41 54                	push   %r12
  4017d8:	55                   	push   %rbp
  4017d9:	53                   	push   %rbx
  4017da:	48 83 ec 70          	sub    $0x70,%rsp
  4017de:	41 89 fc             	mov    %edi,%r12d
  4017e1:	48 89 f5             	mov    %rsi,%rbp
  4017e4:	e8 67 f5 ff ff       	call   400d50 <random@plt>
  4017e9:	48 89 c1             	mov    %rax,%rcx
  4017ec:	48 ba 0b d7 a3 70 3d 	movabs $0xa3d70a3d70a3d70b,%rdx
  4017f3:	0a d7 a3 
  4017f6:	48 f7 ea             	imul   %rdx
  4017f9:	48 8d 04 0a          	lea    (%rdx,%rcx,1),%rax
  4017fd:	48 c1 f8 06          	sar    $0x6,%rax
  401801:	48 89 ce             	mov    %rcx,%rsi
  401804:	48 c1 fe 3f          	sar    $0x3f,%rsi
  401808:	48 29 f0             	sub    %rsi,%rax
  40180b:	48 8d 04 80          	lea    (%rax,%rax,4),%rax
  40180f:	48 8d 04 80          	lea    (%rax,%rax,4),%rax
  401813:	48 c1 e0 02          	shl    $0x2,%rax
  401817:	48 29 c1             	sub    %rax,%rcx
  40181a:	48 8d 1c 0c          	lea    (%rsp,%rcx,1),%rbx
  40181e:	44 89 e2             	mov    %r12d,%edx
  401821:	be f4 30 40 00       	mov    $0x4030f4,%esi
  401826:	48 89 df             	mov    %rbx,%rdi
  401829:	b8 00 00 00 00       	mov    $0x0,%eax
  40182e:	e8 ad f5 ff ff       	call   400de0 <sprintf@plt>
  401833:	ba 09 00 00 00       	mov    $0x9,%edx
  401838:	48 89 de             	mov    %rbx,%rsi
  40183b:	48 89 ef             	mov    %rbp,%rdi
  40183e:	e8 ed f3 ff ff       	call   400c30 <strncmp@plt>
  401843:	85 c0                	test   %eax,%eax
  401845:	0f 94 c0             	sete   %al
  401848:	0f b6 c0             	movzbl %al,%eax
  40184b:	48 83 c4 70          	add    $0x70,%rsp
  40184f:	5b                   	pop    %rbx
  401850:	5d                   	pop    %rbp
  401851:	41 5c                	pop    %r12
  401853:	c3                   	ret    

0000000000401854 <touch3>:
  401854:	53                   	push   %rbx
  401855:	48 89 fb             	mov    %rdi,%rbx
  401858:	c7 05 9a 3c 20 00 03 	movl   $0x3,0x203c9a(%rip)        # 6054fc <vlevel>
  40185f:	00 00 00 
  401862:	48 89 fe             	mov    %rdi,%rsi
  401865:	8b 3d 99 3c 20 00    	mov    0x203c99(%rip),%edi        # 605504 <cookie>
  40186b:	e8 66 ff ff ff       	call   4017d6 <hexmatch>
  401870:	85 c0                	test   %eax,%eax
  401872:	74 1e                	je     401892 <touch3+0x3e>
  401874:	48 89 de             	mov    %rbx,%rsi
  401877:	bf 50 31 40 00       	mov    $0x403150,%edi
  40187c:	b8 00 00 00 00       	mov    $0x0,%eax
  401881:	e8 fa f3 ff ff       	call   400c80 <printf@plt>
  401886:	bf 03 00 00 00       	mov    $0x3,%edi
  40188b:	e8 f9 03 00 00       	call   401c89 <validate>
  401890:	eb 1c                	jmp    4018ae <touch3+0x5a>
  401892:	48 89 de             	mov    %rbx,%rsi
  401895:	bf 78 31 40 00       	mov    $0x403178,%edi
  40189a:	b8 00 00 00 00       	mov    $0x0,%eax
  40189f:	e8 dc f3 ff ff       	call   400c80 <printf@plt>
  4018a4:	bf 03 00 00 00       	mov    $0x3,%edi
  4018a9:	e8 8d 04 00 00       	call   401d3b <fail>
  4018ae:	bf 00 00 00 00       	mov    $0x0,%edi
  4018b3:	e8 38 f5 ff ff       	call   400df0 <exit@plt>

00000000004018b8 <test>:
  4018b8:	48 83 ec 08          	sub    $0x8,%rsp
  4018bc:	b8 00 00 00 00       	mov    $0x0,%eax
  4018c1:	e8 78 fe ff ff       	call   40173e <getbuf>
  4018c6:	89 c6                	mov    %eax,%esi
  4018c8:	bf a0 31 40 00       	mov    $0x4031a0,%edi
  4018cd:	b8 00 00 00 00       	mov    $0x0,%eax
  4018d2:	e8 a9 f3 ff ff       	call   400c80 <printf@plt>
  4018d7:	48 83 c4 08          	add    $0x8,%rsp
  4018db:	c3                   	ret    

58 90 90 c3
58 90 90
58 94 90 90

pop rax: 0x4018ff
cookie: 0x36d52185
mov rax rdi: 0x4018f3
touch2: 401780

00000000004018dc <start_farm>:
  4018dc:	b8 01 00 00 00       	mov    $0x1,%eax
  4018e1:	c3                   	ret    

00000000004018e2 <addval_156>:
  4018e2:	8d 87 58 90 90 c3    	lea    -0x3c6f6fa8(%rdi),%eax
  4018e8:	c3                   	ret    

00000000004018e9 <addval_420>:
  4018e9:	8d 87 0f 48 a9 c7    	lea    -0x3856b7f1(%rdi),%eax
  4018ef:	c3                   	ret    

00000000004018f0 <addval_457>:
  4018f0:	8d 87 ae 48 89 c7    	lea    -0x3876b752(%rdi),%eax
  4018f6:	c3                   	ret    

00000000004018f7 <getval_461>:
  4018f7:	b8 48 89 c7 90       	mov    $0x90c78948,%eax
  4018fc:	c3                   	ret    

00000000004018fd <getval_455>:
  4018fd:	b8 eb 58 90 90       	mov    $0x909058eb,%eax
  401902:	c3                   	ret    

0000000000401903 <setval_496>:
  401903:	c7 07 58 94 90 90    	movl   $0x90909458,(%rdi)
  401909:	c3                   	ret    

000000000040190a <getval_282>:
  40190a:	b8 27 51 24 18       	mov    $0x18245127,%eax
  40190f:	c3                   	ret    

0000000000401910 <addval_185>:
  401910:	8d 87 08 89 c7 c3    	lea    -0x3c3876f8(%rdi),%eax
  401916:	c3                   	ret    

0000000000401917 <mid_farm>:
  401917:	b8 01 00 00 00       	mov    $0x1,%eax
  40191c:	c3                   	ret    

000000000040191d <add_xy>:
  40191d:	48 8d 04 37          	lea    (%rdi,%rsi,1),%rax
  401921:	c3                   	ret    

0000000000401922 <setval_225>:
  401922:	c7 07 89 d6 92 90    	movl   $0x9092d689,(%rdi)
  401928:	c3                   	ret    

0000000000401929 <setval_427>:
  401929:	c7 07 89 ca 90 90    	movl   $0x9090ca89,(%rdi)
  40192f:	c3                   	ret    

0000000000401930 <getval_298>:
  401930:	b8 6a 89 d6 92       	mov    $0x92d6896a,%eax
  401935:	c3                   	ret    

0000000000401936 <getval_460>:
  401936:	b8 89 ca 60 c0       	mov    $0xc060ca89,%eax
  40193b:	c3                   	ret    

000000000040193c <setval_136>:
  40193c:	c7 07 48 48 c9 e0    	movl   $0xe0c94848,(%rdi)
  401942:	c3                   	ret    

0000000000401943 <setval_275>:
  401943:	c7 07 88 c1 20 db    	movl   $0xdb20c188,(%rdi)
  401949:	c3                   	ret    

000000000040194a <setval_412>:
  40194a:	c7 07 89 d6 84 db    	movl   $0xdb84d689,(%rdi)
  401950:	c3                   	ret    

0000000000401951 <getval_200>:
  401951:	b8 48 89 e0 c7       	mov    $0xc7e08948,%eax
  401956:	c3                   	ret    

0000000000401957 <addval_438>:
  401957:	8d 87 48 c9 e0 c3    	lea    -0x3c1f36b8(%rdi),%eax
  40195d:	c3                   	ret    

000000000040195e <setval_351>:
  40195e:	c7 07 89 ca 90 c3    	movl   $0xc390ca89,(%rdi)
  401964:	c3                   	ret    

0000000000401965 <addval_164>:
  401965:	8d 87 89 c1 08 d2    	lea    -0x2df73e77(%rdi),%eax
  40196b:	c3                   	ret    

000000000040196c <addval_213>:
  40196c:	8d 87 89 ca 30 c0    	lea    -0x3fcf3577(%rdi),%eax
  401972:	c3                   	ret    

0000000000401973 <setval_380>:
  401973:	c7 07 cb 2b 99 d6    	movl   $0xd6992bcb,(%rdi)
  401979:	c3                   	ret    

000000000040197a <addval_368>:
  40197a:	8d 87 89 ca a4 c0    	lea    -0x3f5b3577(%rdi),%eax
  401980:	c3                   	ret    

0000000000401981 <setval_168>:
  401981:	c7 07 09 c1 20 c9    	movl   $0xc920c109,(%rdi)
  401987:	c3                   	ret    

0000000000401988 <setval_204>:
  401988:	c7 07 89 c1 90 c3    	movl   $0xc390c189,(%rdi)
  40198e:	c3                   	ret    

000000000040198f <setval_139>:
  40198f:	c7 07 48 89 e0 c3    	movl   $0xc3e08948,(%rdi)
  401995:	c3                   	ret    

0000000000401996 <addval_367>:
  401996:	8d 87 89 ca 00 c0    	lea    -0x3fff3577(%rdi),%eax
  40199c:	c3                   	ret    

000000000040199d <setval_190>:
  40199d:	c7 07 4a 89 e0 90    	movl   $0x90e0894a,(%rdi)
  4019a3:	c3                   	ret    

00000000004019a4 <setval_153>:
  4019a4:	c7 07 48 89 e0 c7    	movl   $0xc7e08948,(%rdi)
  4019aa:	c3                   	ret    

00000000004019ab <addval_334>:
  4019ab:	8d 87 48 89 e0 90    	lea    -0x6f1f76b8(%rdi),%eax
  4019b1:	c3                   	ret    

00000000004019b2 <getval_230>:
  4019b2:	b8 99 d6 90 90       	mov    $0x9090d699,%eax
  4019b7:	c3                   	ret    

00000000004019b8 <getval_279>:
  4019b8:	b8 48 89 e0 c2       	mov    $0xc2e08948,%eax
  4019bd:	c3                   	ret    

00000000004019be <getval_218>:
  4019be:	b8 da 2d 89 d6       	mov    $0xd6892dda,%eax
  4019c3:	c3                   	ret    

00000000004019c4 <addval_485>:
  4019c4:	8d 87 89 d6 48 c9    	lea    -0x36b72977(%rdi),%eax
  4019ca:	c3                   	ret    

00000000004019cb <addval_364>:
  4019cb:	8d 87 8d c1 38 c9    	lea    -0x36c73e73(%rdi),%eax
  4019d1:	c3                   	ret    

00000000004019d2 <getval_285>:
  4019d2:	b8 89 c1 78 db       	mov    $0xdb78c189,%eax
  4019d7:	c3                   	ret    

00000000004019d8 <setval_411>:
  4019d8:	c7 07 89 d6 28 db    	movl   $0xdb28d689,(%rdi)
  4019de:	c3                   	ret    

00000000004019df <setval_102>:
  4019df:	c7 07 99 c1 90 90    	movl   $0x9090c199,(%rdi)
  4019e5:	c3                   	ret    

00000000004019e6 <getval_255>:
  4019e6:	b8 89 ca 90 c7       	mov    $0xc790ca89,%eax
  4019eb:	c3                   	ret    

00000000004019ec <addval_189>:
  4019ec:	8d 87 81 ca 38 d2    	lea    -0x2dc7357f(%rdi),%eax
  4019f2:	c3                   	ret    

00000000004019f3 <addval_435>:
  4019f3:	8d 87 2a 89 c1 91    	lea    -0x6e3e76d6(%rdi),%eax
  4019f9:	c3                   	ret    

00000000004019fa <end_farm>:
  4019fa:	b8 01 00 00 00       	mov    $0x1,%eax
  4019ff:	c3                   	ret    

0000000000401a00 <save_char>:
  401a00:	8b 05 1e 47 20 00    	mov    0x20471e(%rip),%eax        # 606124 <gets_cnt>
  401a06:	3d ff 03 00 00       	cmp    $0x3ff,%eax
  401a0b:	7f 49                	jg     401a56 <save_char+0x56>
  401a0d:	8d 14 40             	lea    (%rax,%rax,2),%edx
  401a10:	89 f9                	mov    %edi,%ecx
  401a12:	c0 e9 04             	shr    $0x4,%cl
  401a15:	83 e1 0f             	and    $0xf,%ecx
  401a18:	0f b6 b1 c0 34 40 00 	movzbl 0x4034c0(%rcx),%esi
  401a1f:	48 63 ca             	movslq %edx,%rcx
  401a22:	40 88 b1 20 55 60 00 	mov    %sil,0x605520(%rcx)
  401a29:	8d 4a 01             	lea    0x1(%rdx),%ecx
  401a2c:	83 e7 0f             	and    $0xf,%edi
  401a2f:	0f b6 b7 c0 34 40 00 	movzbl 0x4034c0(%rdi),%esi
  401a36:	48 63 c9             	movslq %ecx,%rcx
  401a39:	40 88 b1 20 55 60 00 	mov    %sil,0x605520(%rcx)
  401a40:	83 c2 02             	add    $0x2,%edx
  401a43:	48 63 d2             	movslq %edx,%rdx
  401a46:	c6 82 20 55 60 00 20 	movb   $0x20,0x605520(%rdx)
  401a4d:	83 c0 01             	add    $0x1,%eax
  401a50:	89 05 ce 46 20 00    	mov    %eax,0x2046ce(%rip)        # 606124 <gets_cnt>
  401a56:	f3 c3                	repz ret 

0000000000401a58 <save_term>:
  401a58:	8b 05 c6 46 20 00    	mov    0x2046c6(%rip),%eax        # 606124 <gets_cnt>
  401a5e:	8d 04 40             	lea    (%rax,%rax,2),%eax
  401a61:	48 98                	cltq   
  401a63:	c6 80 20 55 60 00 00 	movb   $0x0,0x605520(%rax)
  401a6a:	c3                   	ret    

0000000000401a6b <check_fail>:
  401a6b:	48 83 ec 08          	sub    $0x8,%rsp
  401a6f:	0f be 35 b2 46 20 00 	movsbl 0x2046b2(%rip),%esi        # 606128 <target_prefix>
  401a76:	b9 20 55 60 00       	mov    $0x605520,%ecx
  401a7b:	8b 15 77 3a 20 00    	mov    0x203a77(%rip),%edx        # 6054f8 <check_level>
  401a81:	bf c3 31 40 00       	mov    $0x4031c3,%edi
  401a86:	b8 00 00 00 00       	mov    $0x0,%eax
  401a8b:	e8 f0 f1 ff ff       	call   400c80 <printf@plt>
  401a90:	bf 01 00 00 00       	mov    $0x1,%edi
  401a95:	e8 56 f3 ff ff       	call   400df0 <exit@plt>

0000000000401a9a <Gets>:
  401a9a:	41 54                	push   %r12
  401a9c:	55                   	push   %rbp
  401a9d:	53                   	push   %rbx
  401a9e:	49 89 fc             	mov    %rdi,%r12
  401aa1:	c7 05 79 46 20 00 00 	movl   $0x0,0x204679(%rip)        # 606124 <gets_cnt>
  401aa8:	00 00 00 
  401aab:	48 89 fb             	mov    %rdi,%rbx
  401aae:	eb 11                	jmp    401ac1 <Gets+0x27>
  401ab0:	48 8d 6b 01          	lea    0x1(%rbx),%rbp
  401ab4:	88 03                	mov    %al,(%rbx)
  401ab6:	0f b6 f8             	movzbl %al,%edi
  401ab9:	e8 42 ff ff ff       	call   401a00 <save_char>
  401abe:	48 89 eb             	mov    %rbp,%rbx
  401ac1:	48 8b 3d 28 3a 20 00 	mov    0x203a28(%rip),%rdi        # 6054f0 <infile>
  401ac8:	e8 93 f2 ff ff       	call   400d60 <_IO_getc@plt>
  401acd:	83 f8 ff             	cmp    $0xffffffff,%eax
  401ad0:	74 05                	je     401ad7 <Gets+0x3d>
  401ad2:	83 f8 0a             	cmp    $0xa,%eax
  401ad5:	75 d9                	jne    401ab0 <Gets+0x16>
  401ad7:	c6 03 00             	movb   $0x0,(%rbx)
  401ada:	b8 00 00 00 00       	mov    $0x0,%eax
  401adf:	e8 74 ff ff ff       	call   401a58 <save_term>
  401ae4:	4c 89 e0             	mov    %r12,%rax
  401ae7:	5b                   	pop    %rbx
  401ae8:	5d                   	pop    %rbp
  401ae9:	41 5c                	pop    %r12
  401aeb:	c3                   	ret    

0000000000401aec <notify_server>:
  401aec:	83 3d 15 3a 20 00 00 	cmpl   $0x0,0x203a15(%rip)        # 605508 <is_checker>
  401af3:	0f 85 8e 01 00 00    	jne    401c87 <notify_server+0x19b>
  401af9:	53                   	push   %rbx
  401afa:	48 81 ec 10 40 00 00 	sub    $0x4010,%rsp
  401b01:	89 fb                	mov    %edi,%ebx
  401b03:	8b 05 1b 46 20 00    	mov    0x20461b(%rip),%eax        # 606124 <gets_cnt>
  401b09:	83 c0 64             	add    $0x64,%eax
  401b0c:	3d 00 20 00 00       	cmp    $0x2000,%eax
  401b11:	7e 19                	jle    401b2c <notify_server+0x40>
  401b13:	bf f8 32 40 00       	mov    $0x4032f8,%edi
  401b18:	b8 00 00 00 00       	mov    $0x0,%eax
  401b1d:	e8 5e f1 ff ff       	call   400c80 <printf@plt>
  401b22:	bf 01 00 00 00       	mov    $0x1,%edi
  401b27:	e8 c4 f2 ff ff       	call   400df0 <exit@plt>
  401b2c:	44 0f be 0d f4 45 20 	movsbl 0x2045f4(%rip),%r9d        # 606128 <target_prefix>
  401b33:	00 
  401b34:	83 3d 6d 39 20 00 00 	cmpl   $0x0,0x20396d(%rip)        # 6054a8 <notify>
  401b3b:	74 09                	je     401b46 <notify_server+0x5a>
  401b3d:	44 8b 05 bc 39 20 00 	mov    0x2039bc(%rip),%r8d        # 605500 <authkey>
  401b44:	eb 06                	jmp    401b4c <notify_server+0x60>
  401b46:	41 b8 ff ff ff ff    	mov    $0xffffffff,%r8d
  401b4c:	85 db                	test   %ebx,%ebx
  401b4e:	74 07                	je     401b57 <notify_server+0x6b>
  401b50:	b9 d9 31 40 00       	mov    $0x4031d9,%ecx
  401b55:	eb 05                	jmp    401b5c <notify_server+0x70>
  401b57:	b9 de 31 40 00       	mov    $0x4031de,%ecx
  401b5c:	48 c7 44 24 08 20 55 	movq   $0x605520,0x8(%rsp)
  401b63:	60 00 
  401b65:	89 34 24             	mov    %esi,(%rsp)
  401b68:	8b 15 fa 35 20 00    	mov    0x2035fa(%rip),%edx        # 605168 <target_id>
  401b6e:	be e3 31 40 00       	mov    $0x4031e3,%esi
  401b73:	48 8d bc 24 10 20 00 	lea    0x2010(%rsp),%rdi
  401b7a:	00 
  401b7b:	b8 00 00 00 00       	mov    $0x0,%eax
  401b80:	e8 5b f2 ff ff       	call   400de0 <sprintf@plt>
  401b85:	83 3d 1c 39 20 00 00 	cmpl   $0x0,0x20391c(%rip)        # 6054a8 <notify>
  401b8c:	74 78                	je     401c06 <notify_server+0x11a>
  401b8e:	85 db                	test   %ebx,%ebx
  401b90:	74 68                	je     401bfa <notify_server+0x10e>
  401b92:	4c 8d 4c 24 10       	lea    0x10(%rsp),%r9
  401b97:	41 b8 00 00 00 00    	mov    $0x0,%r8d
  401b9d:	48 8d 8c 24 10 20 00 	lea    0x2010(%rsp),%rcx
  401ba4:	00 
  401ba5:	48 8b 15 c4 35 20 00 	mov    0x2035c4(%rip),%rdx        # 605170 <lab>
  401bac:	48 8b 35 c5 35 20 00 	mov    0x2035c5(%rip),%rsi        # 605178 <course>
  401bb3:	48 8b 3d a6 35 20 00 	mov    0x2035a6(%rip),%rdi        # 605160 <user_id>
  401bba:	e8 94 0f 00 00       	call   402b53 <driver_post>
  401bbf:	85 c0                	test   %eax,%eax
  401bc1:	79 1e                	jns    401be1 <notify_server+0xf5>
  401bc3:	48 8d 74 24 10       	lea    0x10(%rsp),%rsi
  401bc8:	bf ff 31 40 00       	mov    $0x4031ff,%edi
  401bcd:	b8 00 00 00 00       	mov    $0x0,%eax
  401bd2:	e8 a9 f0 ff ff       	call   400c80 <printf@plt>
  401bd7:	bf 01 00 00 00       	mov    $0x1,%edi
  401bdc:	e8 0f f2 ff ff       	call   400df0 <exit@plt>
  401be1:	bf 28 33 40 00       	mov    $0x403328,%edi
  401be6:	e8 65 f0 ff ff       	call   400c50 <puts@plt>
  401beb:	bf 0b 32 40 00       	mov    $0x40320b,%edi
  401bf0:	e8 5b f0 ff ff       	call   400c50 <puts@plt>
  401bf5:	e9 85 00 00 00       	jmp    401c7f <notify_server+0x193>
  401bfa:	bf 15 32 40 00       	mov    $0x403215,%edi
  401bff:	e8 4c f0 ff ff       	call   400c50 <puts@plt>
  401c04:	eb 79                	jmp    401c7f <notify_server+0x193>
  401c06:	85 db                	test   %ebx,%ebx
  401c08:	74 08                	je     401c12 <notify_server+0x126>
  401c0a:	be d9 31 40 00       	mov    $0x4031d9,%esi
  401c0f:	90                   	nop
  401c10:	eb 05                	jmp    401c17 <notify_server+0x12b>
  401c12:	be de 31 40 00       	mov    $0x4031de,%esi
  401c17:	bf 60 33 40 00       	mov    $0x403360,%edi
  401c1c:	b8 00 00 00 00       	mov    $0x0,%eax
  401c21:	e8 5a f0 ff ff       	call   400c80 <printf@plt>
  401c26:	48 8b 35 33 35 20 00 	mov    0x203533(%rip),%rsi        # 605160 <user_id>
  401c2d:	bf 1c 32 40 00       	mov    $0x40321c,%edi
  401c32:	b8 00 00 00 00       	mov    $0x0,%eax
  401c37:	e8 44 f0 ff ff       	call   400c80 <printf@plt>
  401c3c:	48 8b 35 35 35 20 00 	mov    0x203535(%rip),%rsi        # 605178 <course>
  401c43:	bf 29 32 40 00       	mov    $0x403229,%edi
  401c48:	b8 00 00 00 00       	mov    $0x0,%eax
  401c4d:	e8 2e f0 ff ff       	call   400c80 <printf@plt>
  401c52:	48 8b 35 17 35 20 00 	mov    0x203517(%rip),%rsi        # 605170 <lab>
  401c59:	bf 35 32 40 00       	mov    $0x403235,%edi
  401c5e:	b8 00 00 00 00       	mov    $0x0,%eax
  401c63:	e8 18 f0 ff ff       	call   400c80 <printf@plt>
  401c68:	48 8d b4 24 10 20 00 	lea    0x2010(%rsp),%rsi
  401c6f:	00 
  401c70:	bf 3e 32 40 00       	mov    $0x40323e,%edi
  401c75:	b8 00 00 00 00       	mov    $0x0,%eax
  401c7a:	e8 01 f0 ff ff       	call   400c80 <printf@plt>
  401c7f:	48 81 c4 10 40 00 00 	add    $0x4010,%rsp
  401c86:	5b                   	pop    %rbx
  401c87:	f3 c3                	repz ret 

0000000000401c89 <validate>:
  401c89:	53                   	push   %rbx
  401c8a:	89 fb                	mov    %edi,%ebx
  401c8c:	83 3d 75 38 20 00 00 	cmpl   $0x0,0x203875(%rip)        # 605508 <is_checker>
  401c93:	74 60                	je     401cf5 <validate+0x6c>
  401c95:	39 3d 61 38 20 00    	cmp    %edi,0x203861(%rip)        # 6054fc <vlevel>
  401c9b:	74 14                	je     401cb1 <validate+0x28>
  401c9d:	bf 4a 32 40 00       	mov    $0x40324a,%edi
  401ca2:	e8 a9 ef ff ff       	call   400c50 <puts@plt>
  401ca7:	b8 00 00 00 00       	mov    $0x0,%eax
  401cac:	e8 ba fd ff ff       	call   401a6b <check_fail>
  401cb1:	8b 35 41 38 20 00    	mov    0x203841(%rip),%esi        # 6054f8 <check_level>
  401cb7:	39 fe                	cmp    %edi,%esi
  401cb9:	74 1b                	je     401cd6 <validate+0x4d>
  401cbb:	89 fa                	mov    %edi,%edx
  401cbd:	bf 88 33 40 00       	mov    $0x403388,%edi
  401cc2:	b8 00 00 00 00       	mov    $0x0,%eax
  401cc7:	e8 b4 ef ff ff       	call   400c80 <printf@plt>
  401ccc:	b8 00 00 00 00       	mov    $0x0,%eax
  401cd1:	e8 95 fd ff ff       	call   401a6b <check_fail>
  401cd6:	0f be 35 4b 44 20 00 	movsbl 0x20444b(%rip),%esi        # 606128 <target_prefix>
  401cdd:	b9 20 55 60 00       	mov    $0x605520,%ecx
  401ce2:	89 fa                	mov    %edi,%edx
  401ce4:	bf 68 32 40 00       	mov    $0x403268,%edi
  401ce9:	b8 00 00 00 00       	mov    $0x0,%eax
  401cee:	e8 8d ef ff ff       	call   400c80 <printf@plt>
  401cf3:	eb 44                	jmp    401d39 <validate+0xb0>
  401cf5:	39 3d 01 38 20 00    	cmp    %edi,0x203801(%rip)        # 6054fc <vlevel>
  401cfb:	74 18                	je     401d15 <validate+0x8c>
  401cfd:	bf 4a 32 40 00       	mov    $0x40324a,%edi
  401d02:	e8 49 ef ff ff       	call   400c50 <puts@plt>
  401d07:	89 de                	mov    %ebx,%esi
  401d09:	bf 00 00 00 00       	mov    $0x0,%edi
  401d0e:	e8 d9 fd ff ff       	call   401aec <notify_server>
  401d13:	eb 24                	jmp    401d39 <validate+0xb0>
  401d15:	0f be 15 0c 44 20 00 	movsbl 0x20440c(%rip),%edx        # 606128 <target_prefix>
  401d1c:	89 fe                	mov    %edi,%esi
  401d1e:	bf b0 33 40 00       	mov    $0x4033b0,%edi
  401d23:	b8 00 00 00 00       	mov    $0x0,%eax
  401d28:	e8 53 ef ff ff       	call   400c80 <printf@plt>
  401d2d:	89 de                	mov    %ebx,%esi
  401d2f:	bf 01 00 00 00       	mov    $0x1,%edi
  401d34:	e8 b3 fd ff ff       	call   401aec <notify_server>
  401d39:	5b                   	pop    %rbx
  401d3a:	c3                   	ret    

0000000000401d3b <fail>:
  401d3b:	48 83 ec 08          	sub    $0x8,%rsp
  401d3f:	83 3d c2 37 20 00 00 	cmpl   $0x0,0x2037c2(%rip)        # 605508 <is_checker>
  401d46:	74 0a                	je     401d52 <fail+0x17>
  401d48:	b8 00 00 00 00       	mov    $0x0,%eax
  401d4d:	e8 19 fd ff ff       	call   401a6b <check_fail>
  401d52:	89 fe                	mov    %edi,%esi
  401d54:	bf 00 00 00 00       	mov    $0x0,%edi
  401d59:	e8 8e fd ff ff       	call   401aec <notify_server>
  401d5e:	48 83 c4 08          	add    $0x8,%rsp
  401d62:	c3                   	ret    

0000000000401d63 <bushandler>:
  401d63:	48 83 ec 08          	sub    $0x8,%rsp
  401d67:	83 3d 9a 37 20 00 00 	cmpl   $0x0,0x20379a(%rip)        # 605508 <is_checker>
  401d6e:	74 14                	je     401d84 <bushandler+0x21>
  401d70:	bf 7d 32 40 00       	mov    $0x40327d,%edi
  401d75:	e8 d6 ee ff ff       	call   400c50 <puts@plt>
  401d7a:	b8 00 00 00 00       	mov    $0x0,%eax
  401d7f:	e8 e7 fc ff ff       	call   401a6b <check_fail>
  401d84:	bf e8 33 40 00       	mov    $0x4033e8,%edi
  401d89:	e8 c2 ee ff ff       	call   400c50 <puts@plt>
  401d8e:	bf 87 32 40 00       	mov    $0x403287,%edi
  401d93:	e8 b8 ee ff ff       	call   400c50 <puts@plt>
  401d98:	be 00 00 00 00       	mov    $0x0,%esi
  401d9d:	bf 00 00 00 00       	mov    $0x0,%edi
  401da2:	e8 45 fd ff ff       	call   401aec <notify_server>
  401da7:	bf 01 00 00 00       	mov    $0x1,%edi
  401dac:	e8 3f f0 ff ff       	call   400df0 <exit@plt>

0000000000401db1 <seghandler>:
  401db1:	48 83 ec 08          	sub    $0x8,%rsp
  401db5:	83 3d 4c 37 20 00 00 	cmpl   $0x0,0x20374c(%rip)        # 605508 <is_checker>
  401dbc:	74 14                	je     401dd2 <seghandler+0x21>
  401dbe:	bf 9d 32 40 00       	mov    $0x40329d,%edi
  401dc3:	e8 88 ee ff ff       	call   400c50 <puts@plt>
  401dc8:	b8 00 00 00 00       	mov    $0x0,%eax
  401dcd:	e8 99 fc ff ff       	call   401a6b <check_fail>
  401dd2:	bf 08 34 40 00       	mov    $0x403408,%edi
  401dd7:	e8 74 ee ff ff       	call   400c50 <puts@plt>
  401ddc:	bf 87 32 40 00       	mov    $0x403287,%edi
  401de1:	e8 6a ee ff ff       	call   400c50 <puts@plt>
  401de6:	be 00 00 00 00       	mov    $0x0,%esi
  401deb:	bf 00 00 00 00       	mov    $0x0,%edi
  401df0:	e8 f7 fc ff ff       	call   401aec <notify_server>
  401df5:	bf 01 00 00 00       	mov    $0x1,%edi
  401dfa:	e8 f1 ef ff ff       	call   400df0 <exit@plt>

0000000000401dff <illegalhandler>:
  401dff:	48 83 ec 08          	sub    $0x8,%rsp
  401e03:	83 3d fe 36 20 00 00 	cmpl   $0x0,0x2036fe(%rip)        # 605508 <is_checker>
  401e0a:	74 14                	je     401e20 <illegalhandler+0x21>
  401e0c:	bf b0 32 40 00       	mov    $0x4032b0,%edi
  401e11:	e8 3a ee ff ff       	call   400c50 <puts@plt>
  401e16:	b8 00 00 00 00       	mov    $0x0,%eax
  401e1b:	e8 4b fc ff ff       	call   401a6b <check_fail>
  401e20:	bf 30 34 40 00       	mov    $0x403430,%edi
  401e25:	e8 26 ee ff ff       	call   400c50 <puts@plt>
  401e2a:	bf 87 32 40 00       	mov    $0x403287,%edi
  401e2f:	e8 1c ee ff ff       	call   400c50 <puts@plt>
  401e34:	be 00 00 00 00       	mov    $0x0,%esi
  401e39:	bf 00 00 00 00       	mov    $0x0,%edi
  401e3e:	e8 a9 fc ff ff       	call   401aec <notify_server>
  401e43:	bf 01 00 00 00       	mov    $0x1,%edi
  401e48:	e8 a3 ef ff ff       	call   400df0 <exit@plt>

0000000000401e4d <sigalrmhandler>:
  401e4d:	48 83 ec 08          	sub    $0x8,%rsp
  401e51:	83 3d b0 36 20 00 00 	cmpl   $0x0,0x2036b0(%rip)        # 605508 <is_checker>
  401e58:	74 14                	je     401e6e <sigalrmhandler+0x21>
  401e5a:	bf c4 32 40 00       	mov    $0x4032c4,%edi
  401e5f:	e8 ec ed ff ff       	call   400c50 <puts@plt>
  401e64:	b8 00 00 00 00       	mov    $0x0,%eax
  401e69:	e8 fd fb ff ff       	call   401a6b <check_fail>
  401e6e:	be 05 00 00 00       	mov    $0x5,%esi
  401e73:	bf 60 34 40 00       	mov    $0x403460,%edi
  401e78:	b8 00 00 00 00       	mov    $0x0,%eax
  401e7d:	e8 fe ed ff ff       	call   400c80 <printf@plt>
  401e82:	be 00 00 00 00       	mov    $0x0,%esi
  401e87:	bf 00 00 00 00       	mov    $0x0,%edi
  401e8c:	e8 5b fc ff ff       	call   401aec <notify_server>
  401e91:	bf 01 00 00 00       	mov    $0x1,%edi
  401e96:	e8 55 ef ff ff       	call   400df0 <exit@plt>

0000000000401e9b <launch>:
  401e9b:	55                   	push   %rbp
  401e9c:	48 89 e5             	mov    %rsp,%rbp
  401e9f:	48 89 fa             	mov    %rdi,%rdx
  401ea2:	48 8d 47 1e          	lea    0x1e(%rdi),%rax
  401ea6:	48 83 e0 f0          	and    $0xfffffffffffffff0,%rax
  401eaa:	48 29 c4             	sub    %rax,%rsp
  401ead:	48 8d 7c 24 0f       	lea    0xf(%rsp),%rdi
  401eb2:	48 83 e7 f0          	and    $0xfffffffffffffff0,%rdi
  401eb6:	be f4 00 00 00       	mov    $0xf4,%esi
  401ebb:	e8 d0 ed ff ff       	call   400c90 <memset@plt>
  401ec0:	48 8b 05 f9 35 20 00 	mov    0x2035f9(%rip),%rax        # 6054c0 <stdin@GLIBC_2.2.5>
  401ec7:	48 39 05 22 36 20 00 	cmp    %rax,0x203622(%rip)        # 6054f0 <infile>
  401ece:	75 0f                	jne    401edf <launch+0x44>
  401ed0:	bf cc 32 40 00       	mov    $0x4032cc,%edi
  401ed5:	b8 00 00 00 00       	mov    $0x0,%eax
  401eda:	e8 a1 ed ff ff       	call   400c80 <printf@plt>
  401edf:	c7 05 13 36 20 00 00 	movl   $0x0,0x203613(%rip)        # 6054fc <vlevel>
  401ee6:	00 00 00 
  401ee9:	b8 00 00 00 00       	mov    $0x0,%eax
  401eee:	e8 c5 f9 ff ff       	call   4018b8 <test>
  401ef3:	83 3d 0e 36 20 00 00 	cmpl   $0x0,0x20360e(%rip)        # 605508 <is_checker>
  401efa:	74 14                	je     401f10 <launch+0x75>
  401efc:	bf d9 32 40 00       	mov    $0x4032d9,%edi
  401f01:	e8 4a ed ff ff       	call   400c50 <puts@plt>
  401f06:	b8 00 00 00 00       	mov    $0x0,%eax
  401f0b:	e8 5b fb ff ff       	call   401a6b <check_fail>
  401f10:	bf e4 32 40 00       	mov    $0x4032e4,%edi
  401f15:	e8 36 ed ff ff       	call   400c50 <puts@plt>
  401f1a:	c9                   	leave  
  401f1b:	c3                   	ret    

0000000000401f1c <stable_launch>:
  401f1c:	53                   	push   %rbx
  401f1d:	48 89 3d c4 35 20 00 	mov    %rdi,0x2035c4(%rip)        # 6054e8 <global_offset>
  401f24:	41 b9 00 00 00 00    	mov    $0x0,%r9d
  401f2a:	41 b8 00 00 00 00    	mov    $0x0,%r8d
  401f30:	b9 32 01 00 00       	mov    $0x132,%ecx
  401f35:	ba 07 00 00 00       	mov    $0x7,%edx
  401f3a:	be 00 00 10 00       	mov    $0x100000,%esi
  401f3f:	bf 00 60 58 55       	mov    $0x55586000,%edi
  401f44:	e8 27 ed ff ff       	call   400c70 <mmap@plt>
  401f49:	48 89 c3             	mov    %rax,%rbx
  401f4c:	48 3d 00 60 58 55    	cmp    $0x55586000,%rax
  401f52:	74 32                	je     401f86 <stable_launch+0x6a>
  401f54:	be 00 00 10 00       	mov    $0x100000,%esi
  401f59:	48 89 c7             	mov    %rax,%rdi
  401f5c:	e8 1f ee ff ff       	call   400d80 <munmap@plt>
  401f61:	ba 00 60 58 55       	mov    $0x55586000,%edx
  401f66:	be 98 34 40 00       	mov    $0x403498,%esi
  401f6b:	48 8b 3d 5e 35 20 00 	mov    0x20355e(%rip),%rdi        # 6054d0 <stderr@GLIBC_2.2.5>
  401f72:	b8 00 00 00 00       	mov    $0x0,%eax
  401f77:	e8 84 ed ff ff       	call   400d00 <fprintf@plt>
  401f7c:	bf 01 00 00 00       	mov    $0x1,%edi
  401f81:	e8 6a ee ff ff       	call   400df0 <exit@plt>
  401f86:	48 8d 90 f8 ff 0f 00 	lea    0xffff8(%rax),%rdx
  401f8d:	48 89 15 9c 41 20 00 	mov    %rdx,0x20419c(%rip)        # 606130 <stack_top>
  401f94:	48 89 e0             	mov    %rsp,%rax
  401f97:	48 89 d4             	mov    %rdx,%rsp
  401f9a:	48 89 c2             	mov    %rax,%rdx
  401f9d:	48 89 15 3c 35 20 00 	mov    %rdx,0x20353c(%rip)        # 6054e0 <global_save_stack>
  401fa4:	48 8b 3d 3d 35 20 00 	mov    0x20353d(%rip),%rdi        # 6054e8 <global_offset>
  401fab:	e8 eb fe ff ff       	call   401e9b <launch>
  401fb0:	48 8b 05 29 35 20 00 	mov    0x203529(%rip),%rax        # 6054e0 <global_save_stack>
  401fb7:	48 89 c4             	mov    %rax,%rsp
  401fba:	be 00 00 10 00       	mov    $0x100000,%esi
  401fbf:	48 89 df             	mov    %rbx,%rdi
  401fc2:	e8 b9 ed ff ff       	call   400d80 <munmap@plt>
  401fc7:	5b                   	pop    %rbx
  401fc8:	c3                   	ret    
  401fc9:	0f 1f 80 00 00 00 00 	nopl   0x0(%rax)

0000000000401fd0 <rio_readinitb>:
  401fd0:	89 37                	mov    %esi,(%rdi)
  401fd2:	c7 47 04 00 00 00 00 	movl   $0x0,0x4(%rdi)
  401fd9:	48 8d 47 10          	lea    0x10(%rdi),%rax
  401fdd:	48 89 47 08          	mov    %rax,0x8(%rdi)
  401fe1:	c3                   	ret    

0000000000401fe2 <sigalrm_handler>:
  401fe2:	48 83 ec 08          	sub    $0x8,%rsp
  401fe6:	ba 00 00 00 00       	mov    $0x0,%edx
  401feb:	be d0 34 40 00       	mov    $0x4034d0,%esi
  401ff0:	48 8b 3d d9 34 20 00 	mov    0x2034d9(%rip),%rdi        # 6054d0 <stderr@GLIBC_2.2.5>
  401ff7:	b8 00 00 00 00       	mov    $0x0,%eax
  401ffc:	e8 ff ec ff ff       	call   400d00 <fprintf@plt>
  402001:	bf 01 00 00 00       	mov    $0x1,%edi
  402006:	e8 e5 ed ff ff       	call   400df0 <exit@plt>

000000000040200b <urlencode>:
  40200b:	41 54                	push   %r12
  40200d:	55                   	push   %rbp
  40200e:	53                   	push   %rbx
  40200f:	48 83 ec 10          	sub    $0x10,%rsp
  402013:	48 89 fb             	mov    %rdi,%rbx
  402016:	48 89 f5             	mov    %rsi,%rbp
  402019:	b8 00 00 00 00       	mov    $0x0,%eax
  40201e:	48 c7 c1 ff ff ff ff 	mov    $0xffffffffffffffff,%rcx
  402025:	f2 ae                	repnz scas %es:(%rdi),%al
  402027:	48 f7 d1             	not    %rcx
  40202a:	8d 41 ff             	lea    -0x1(%rcx),%eax
  40202d:	e9 93 00 00 00       	jmp    4020c5 <urlencode+0xba>
  402032:	0f b6 13             	movzbl (%rbx),%edx
  402035:	80 fa 2a             	cmp    $0x2a,%dl
  402038:	0f 94 c1             	sete   %cl
  40203b:	80 fa 2d             	cmp    $0x2d,%dl
  40203e:	0f 94 c0             	sete   %al
  402041:	08 c1                	or     %al,%cl
  402043:	75 1f                	jne    402064 <urlencode+0x59>
  402045:	80 fa 2e             	cmp    $0x2e,%dl
  402048:	74 1a                	je     402064 <urlencode+0x59>
  40204a:	80 fa 5f             	cmp    $0x5f,%dl
  40204d:	74 15                	je     402064 <urlencode+0x59>
  40204f:	8d 42 d0             	lea    -0x30(%rdx),%eax
  402052:	3c 09                	cmp    $0x9,%al
  402054:	76 0e                	jbe    402064 <urlencode+0x59>
  402056:	8d 42 bf             	lea    -0x41(%rdx),%eax
  402059:	3c 19                	cmp    $0x19,%al
  40205b:	76 07                	jbe    402064 <urlencode+0x59>
  40205d:	8d 42 9f             	lea    -0x61(%rdx),%eax
  402060:	3c 19                	cmp    $0x19,%al
  402062:	77 09                	ja     40206d <urlencode+0x62>
  402064:	88 55 00             	mov    %dl,0x0(%rbp)
  402067:	48 8d 6d 01          	lea    0x1(%rbp),%rbp
  40206b:	eb 51                	jmp    4020be <urlencode+0xb3>
  40206d:	80 fa 20             	cmp    $0x20,%dl
  402070:	75 0a                	jne    40207c <urlencode+0x71>
  402072:	c6 45 00 2b          	movb   $0x2b,0x0(%rbp)
  402076:	48 8d 6d 01          	lea    0x1(%rbp),%rbp
  40207a:	eb 42                	jmp    4020be <urlencode+0xb3>
  40207c:	8d 42 e0             	lea    -0x20(%rdx),%eax
  40207f:	3c 5f                	cmp    $0x5f,%al
  402081:	0f 96 c1             	setbe  %cl
  402084:	80 fa 09             	cmp    $0x9,%dl
  402087:	0f 94 c0             	sete   %al
  40208a:	08 c1                	or     %al,%cl
  40208c:	74 45                	je     4020d3 <urlencode+0xc8>
  40208e:	0f b6 d2             	movzbl %dl,%edx
  402091:	be 68 35 40 00       	mov    $0x403568,%esi
  402096:	48 89 e7             	mov    %rsp,%rdi
  402099:	b8 00 00 00 00       	mov    $0x0,%eax
  40209e:	e8 3d ed ff ff       	call   400de0 <sprintf@plt>
  4020a3:	0f b6 04 24          	movzbl (%rsp),%eax
  4020a7:	88 45 00             	mov    %al,0x0(%rbp)
  4020aa:	0f b6 44 24 01       	movzbl 0x1(%rsp),%eax
  4020af:	88 45 01             	mov    %al,0x1(%rbp)
  4020b2:	0f b6 44 24 02       	movzbl 0x2(%rsp),%eax
  4020b7:	88 45 02             	mov    %al,0x2(%rbp)
  4020ba:	48 8d 6d 03          	lea    0x3(%rbp),%rbp
  4020be:	48 83 c3 01          	add    $0x1,%rbx
  4020c2:	44 89 e0             	mov    %r12d,%eax
  4020c5:	44 8d 60 ff          	lea    -0x1(%rax),%r12d
  4020c9:	85 c0                	test   %eax,%eax
  4020cb:	0f 85 61 ff ff ff    	jne    402032 <urlencode+0x27>
  4020d1:	eb 05                	jmp    4020d8 <urlencode+0xcd>
  4020d3:	b8 ff ff ff ff       	mov    $0xffffffff,%eax
  4020d8:	48 83 c4 10          	add    $0x10,%rsp
  4020dc:	5b                   	pop    %rbx
  4020dd:	5d                   	pop    %rbp
  4020de:	41 5c                	pop    %r12
  4020e0:	c3                   	ret    

00000000004020e1 <rio_writen>:
  4020e1:	41 55                	push   %r13
  4020e3:	41 54                	push   %r12
  4020e5:	55                   	push   %rbp
  4020e6:	53                   	push   %rbx
  4020e7:	48 83 ec 08          	sub    $0x8,%rsp
  4020eb:	41 89 fc             	mov    %edi,%r12d
  4020ee:	48 89 f5             	mov    %rsi,%rbp
  4020f1:	49 89 d5             	mov    %rdx,%r13
  4020f4:	48 89 d3             	mov    %rdx,%rbx
  4020f7:	eb 28                	jmp    402121 <rio_writen+0x40>
  4020f9:	48 89 da             	mov    %rbx,%rdx
  4020fc:	48 89 ee             	mov    %rbp,%rsi
  4020ff:	44 89 e7             	mov    %r12d,%edi
  402102:	e8 59 eb ff ff       	call   400c60 <write@plt>
  402107:	48 85 c0             	test   %rax,%rax
  40210a:	7f 0f                	jg     40211b <rio_writen+0x3a>
  40210c:	e8 ff ea ff ff       	call   400c10 <__errno_location@plt>
  402111:	83 38 04             	cmpl   $0x4,(%rax)
  402114:	75 15                	jne    40212b <rio_writen+0x4a>
  402116:	b8 00 00 00 00       	mov    $0x0,%eax
  40211b:	48 29 c3             	sub    %rax,%rbx
  40211e:	48 01 c5             	add    %rax,%rbp
  402121:	48 85 db             	test   %rbx,%rbx
  402124:	75 d3                	jne    4020f9 <rio_writen+0x18>
  402126:	4c 89 e8             	mov    %r13,%rax
  402129:	eb 07                	jmp    402132 <rio_writen+0x51>
  40212b:	48 c7 c0 ff ff ff ff 	mov    $0xffffffffffffffff,%rax
  402132:	48 83 c4 08          	add    $0x8,%rsp
  402136:	5b                   	pop    %rbx
  402137:	5d                   	pop    %rbp
  402138:	41 5c                	pop    %r12
  40213a:	41 5d                	pop    %r13
  40213c:	c3                   	ret    

000000000040213d <rio_read>:
  40213d:	41 56                	push   %r14
  40213f:	41 55                	push   %r13
  402141:	41 54                	push   %r12
  402143:	55                   	push   %rbp
  402144:	53                   	push   %rbx
  402145:	48 89 fb             	mov    %rdi,%rbx
  402148:	49 89 f6             	mov    %rsi,%r14
  40214b:	49 89 d5             	mov    %rdx,%r13
  40214e:	4c 8d 67 10          	lea    0x10(%rdi),%r12
  402152:	eb 2a                	jmp    40217e <rio_read+0x41>
  402154:	ba 00 20 00 00       	mov    $0x2000,%edx
  402159:	4c 89 e6             	mov    %r12,%rsi
  40215c:	8b 3b                	mov    (%rbx),%edi
  40215e:	e8 5d eb ff ff       	call   400cc0 <read@plt>
  402163:	89 43 04             	mov    %eax,0x4(%rbx)
  402166:	85 c0                	test   %eax,%eax
  402168:	79 0c                	jns    402176 <rio_read+0x39>
  40216a:	e8 a1 ea ff ff       	call   400c10 <__errno_location@plt>
  40216f:	83 38 04             	cmpl   $0x4,(%rax)
  402172:	74 0a                	je     40217e <rio_read+0x41>
  402174:	eb 37                	jmp    4021ad <rio_read+0x70>
  402176:	85 c0                	test   %eax,%eax
  402178:	74 3c                	je     4021b6 <rio_read+0x79>
  40217a:	4c 89 63 08          	mov    %r12,0x8(%rbx)
  40217e:	8b 6b 04             	mov    0x4(%rbx),%ebp
  402181:	85 ed                	test   %ebp,%ebp
  402183:	7e cf                	jle    402154 <rio_read+0x17>
  402185:	89 e8                	mov    %ebp,%eax
  402187:	4c 39 e8             	cmp    %r13,%rax
  40218a:	72 03                	jb     40218f <rio_read+0x52>
  40218c:	44 89 ed             	mov    %r13d,%ebp
  40218f:	4c 63 e5             	movslq %ebp,%r12
  402192:	48 8b 73 08          	mov    0x8(%rbx),%rsi
  402196:	4c 89 e2             	mov    %r12,%rdx
  402199:	4c 89 f7             	mov    %r14,%rdi
  40219c:	e8 8f eb ff ff       	call   400d30 <memcpy@plt>
  4021a1:	4c 01 63 08          	add    %r12,0x8(%rbx)
  4021a5:	29 6b 04             	sub    %ebp,0x4(%rbx)
  4021a8:	4c 89 e0             	mov    %r12,%rax
  4021ab:	eb 0e                	jmp    4021bb <rio_read+0x7e>
  4021ad:	48 c7 c0 ff ff ff ff 	mov    $0xffffffffffffffff,%rax
  4021b4:	eb 05                	jmp    4021bb <rio_read+0x7e>
  4021b6:	b8 00 00 00 00       	mov    $0x0,%eax
  4021bb:	5b                   	pop    %rbx
  4021bc:	5d                   	pop    %rbp
  4021bd:	41 5c                	pop    %r12
  4021bf:	41 5d                	pop    %r13
  4021c1:	41 5e                	pop    %r14
  4021c3:	c3                   	ret    

00000000004021c4 <rio_readlineb>:
  4021c4:	41 55                	push   %r13
  4021c6:	41 54                	push   %r12
  4021c8:	55                   	push   %rbp
  4021c9:	53                   	push   %rbx
  4021ca:	48 83 ec 18          	sub    $0x18,%rsp
  4021ce:	49 89 fd             	mov    %rdi,%r13
  4021d1:	48 89 f5             	mov    %rsi,%rbp
  4021d4:	49 89 d4             	mov    %rdx,%r12
  4021d7:	bb 01 00 00 00       	mov    $0x1,%ebx
  4021dc:	eb 3d                	jmp    40221b <rio_readlineb+0x57>
  4021de:	ba 01 00 00 00       	mov    $0x1,%edx
  4021e3:	48 8d 74 24 0f       	lea    0xf(%rsp),%rsi
  4021e8:	4c 89 ef             	mov    %r13,%rdi
  4021eb:	e8 4d ff ff ff       	call   40213d <rio_read>
  4021f0:	83 f8 01             	cmp    $0x1,%eax
  4021f3:	75 12                	jne    402207 <rio_readlineb+0x43>
  4021f5:	48 8d 55 01          	lea    0x1(%rbp),%rdx
  4021f9:	0f b6 44 24 0f       	movzbl 0xf(%rsp),%eax
  4021fe:	88 45 00             	mov    %al,0x0(%rbp)
  402201:	3c 0a                	cmp    $0xa,%al
  402203:	75 0f                	jne    402214 <rio_readlineb+0x50>
  402205:	eb 1b                	jmp    402222 <rio_readlineb+0x5e>
  402207:	85 c0                	test   %eax,%eax
  402209:	75 23                	jne    40222e <rio_readlineb+0x6a>
  40220b:	48 83 fb 01          	cmp    $0x1,%rbx
  40220f:	90                   	nop
  402210:	75 13                	jne    402225 <rio_readlineb+0x61>
  402212:	eb 23                	jmp    402237 <rio_readlineb+0x73>
  402214:	48 83 c3 01          	add    $0x1,%rbx
  402218:	48 89 d5             	mov    %rdx,%rbp
  40221b:	4c 39 e3             	cmp    %r12,%rbx
  40221e:	72 be                	jb     4021de <rio_readlineb+0x1a>
  402220:	eb 03                	jmp    402225 <rio_readlineb+0x61>
  402222:	48 89 d5             	mov    %rdx,%rbp
  402225:	c6 45 00 00          	movb   $0x0,0x0(%rbp)
  402229:	48 89 d8             	mov    %rbx,%rax
  40222c:	eb 0e                	jmp    40223c <rio_readlineb+0x78>
  40222e:	48 c7 c0 ff ff ff ff 	mov    $0xffffffffffffffff,%rax
  402235:	eb 05                	jmp    40223c <rio_readlineb+0x78>
  402237:	b8 00 00 00 00       	mov    $0x0,%eax
  40223c:	48 83 c4 18          	add    $0x18,%rsp
  402240:	5b                   	pop    %rbx
  402241:	5d                   	pop    %rbp
  402242:	41 5c                	pop    %r12
  402244:	41 5d                	pop    %r13
  402246:	c3                   	ret    

0000000000402247 <submitr>:
  402247:	41 57                	push   %r15
  402249:	41 56                	push   %r14
  40224b:	41 55                	push   %r13
  40224d:	41 54                	push   %r12
  40224f:	55                   	push   %rbp
  402250:	53                   	push   %rbx
  402251:	48 81 ec 48 a0 00 00 	sub    $0xa048,%rsp
  402258:	49 89 fc             	mov    %rdi,%r12
  40225b:	89 74 24 04          	mov    %esi,0x4(%rsp)
  40225f:	49 89 d7             	mov    %rdx,%r15
  402262:	49 89 ce             	mov    %rcx,%r14
  402265:	4c 89 44 24 08       	mov    %r8,0x8(%rsp)
  40226a:	4d 89 cd             	mov    %r9,%r13
  40226d:	48 8b 9c 24 80 a0 00 	mov    0xa080(%rsp),%rbx
  402274:	00 
  402275:	c7 84 24 1c 20 00 00 	movl   $0x0,0x201c(%rsp)
  40227c:	00 00 00 00 
  402280:	ba 00 00 00 00       	mov    $0x0,%edx
  402285:	be 01 00 00 00       	mov    $0x1,%esi
  40228a:	bf 02 00 00 00       	mov    $0x2,%edi
  40228f:	e8 7c eb ff ff       	call   400e10 <socket@plt>
  402294:	89 c5                	mov    %eax,%ebp
  402296:	85 c0                	test   %eax,%eax
  402298:	79 4e                	jns    4022e8 <submitr+0xa1>
  40229a:	48 b8 45 72 72 6f 72 	movabs $0x43203a726f727245,%rax
  4022a1:	3a 20 43 
  4022a4:	48 89 03             	mov    %rax,(%rbx)
  4022a7:	48 b8 6c 69 65 6e 74 	movabs $0x6e7520746e65696c,%rax
  4022ae:	20 75 6e 
  4022b1:	48 89 43 08          	mov    %rax,0x8(%rbx)
  4022b5:	48 b8 61 62 6c 65 20 	movabs $0x206f7420656c6261,%rax
  4022bc:	74 6f 20 
  4022bf:	48 89 43 10          	mov    %rax,0x10(%rbx)
  4022c3:	48 b8 63 72 65 61 74 	movabs $0x7320657461657263,%rax
  4022ca:	65 20 73 
  4022cd:	48 89 43 18          	mov    %rax,0x18(%rbx)
  4022d1:	c7 43 20 6f 63 6b 65 	movl   $0x656b636f,0x20(%rbx)
  4022d8:	66 c7 43 24 74 00    	movw   $0x74,0x24(%rbx)
  4022de:	b8 ff ff ff ff       	mov    $0xffffffff,%eax
  4022e3:	e9 68 06 00 00       	jmp    402950 <submitr+0x709>
  4022e8:	4c 89 e7             	mov    %r12,%rdi
  4022eb:	e8 00 ea ff ff       	call   400cf0 <gethostbyname@plt>
  4022f0:	48 85 c0             	test   %rax,%rax
  4022f3:	75 67                	jne    40235c <submitr+0x115>
  4022f5:	48 b8 45 72 72 6f 72 	movabs $0x44203a726f727245,%rax
  4022fc:	3a 20 44 
  4022ff:	48 89 03             	mov    %rax,(%rbx)
  402302:	48 b8 4e 53 20 69 73 	movabs $0x6e7520736920534e,%rax
  402309:	20 75 6e 
  40230c:	48 89 43 08          	mov    %rax,0x8(%rbx)
  402310:	48 b8 61 62 6c 65 20 	movabs $0x206f7420656c6261,%rax
  402317:	74 6f 20 
  40231a:	48 89 43 10          	mov    %rax,0x10(%rbx)
  40231e:	48 b8 72 65 73 6f 6c 	movabs $0x2065766c6f736572,%rax
  402325:	76 65 20 
  402328:	48 89 43 18          	mov    %rax,0x18(%rbx)
  40232c:	48 b8 73 65 72 76 65 	movabs $0x6120726576726573,%rax
  402333:	72 20 61 
  402336:	48 89 43 20          	mov    %rax,0x20(%rbx)
  40233a:	c7 43 28 64 64 72 65 	movl   $0x65726464,0x28(%rbx)
  402341:	66 c7 43 2c 73 73    	movw   $0x7373,0x2c(%rbx)
  402347:	c6 43 2e 00          	movb   $0x0,0x2e(%rbx)
  40234b:	89 ef                	mov    %ebp,%edi
  40234d:	e8 5e e9 ff ff       	call   400cb0 <close@plt>
  402352:	b8 ff ff ff ff       	mov    $0xffffffff,%eax
  402357:	e9 f4 05 00 00       	jmp    402950 <submitr+0x709>
  40235c:	48 c7 84 24 30 a0 00 	movq   $0x0,0xa030(%rsp)
  402363:	00 00 00 00 00 
  402368:	48 c7 84 24 38 a0 00 	movq   $0x0,0xa038(%rsp)
  40236f:	00 00 00 00 00 
  402374:	66 c7 84 24 30 a0 00 	movw   $0x2,0xa030(%rsp)
  40237b:	00 02 00 
  40237e:	48 8b 48 18          	mov    0x18(%rax),%rcx
  402382:	48 63 50 14          	movslq 0x14(%rax),%rdx
  402386:	48 8d b4 24 34 a0 00 	lea    0xa034(%rsp),%rsi
  40238d:	00 
  40238e:	48 8b 39             	mov    (%rcx),%rdi
  402391:	e8 fa e9 ff ff       	call   400d90 <bcopy@plt>
  402396:	0f b7 44 24 04       	movzwl 0x4(%rsp),%eax
  40239b:	66 c1 c8 08          	ror    $0x8,%ax
  40239f:	66 89 84 24 32 a0 00 	mov    %ax,0xa032(%rsp)
  4023a6:	00 
  4023a7:	ba 10 00 00 00       	mov    $0x10,%edx
  4023ac:	48 8d b4 24 30 a0 00 	lea    0xa030(%rsp),%rsi
  4023b3:	00 
  4023b4:	89 ef                	mov    %ebp,%edi
  4023b6:	e8 45 ea ff ff       	call   400e00 <connect@plt>
  4023bb:	85 c0                	test   %eax,%eax
  4023bd:	79 59                	jns    402418 <submitr+0x1d1>
  4023bf:	48 b8 45 72 72 6f 72 	movabs $0x55203a726f727245,%rax
  4023c6:	3a 20 55 
  4023c9:	48 89 03             	mov    %rax,(%rbx)
  4023cc:	48 b8 6e 61 62 6c 65 	movabs $0x6f7420656c62616e,%rax
  4023d3:	20 74 6f 
  4023d6:	48 89 43 08          	mov    %rax,0x8(%rbx)
  4023da:	48 b8 20 63 6f 6e 6e 	movabs $0x7463656e6e6f6320,%rax
  4023e1:	65 63 74 
  4023e4:	48 89 43 10          	mov    %rax,0x10(%rbx)
  4023e8:	48 b8 20 74 6f 20 74 	movabs $0x20656874206f7420,%rax
  4023ef:	68 65 20 
  4023f2:	48 89 43 18          	mov    %rax,0x18(%rbx)
  4023f6:	c7 43 20 73 65 72 76 	movl   $0x76726573,0x20(%rbx)
  4023fd:	66 c7 43 24 65 72    	movw   $0x7265,0x24(%rbx)
  402403:	c6 43 26 00          	movb   $0x0,0x26(%rbx)
  402407:	89 ef                	mov    %ebp,%edi
  402409:	e8 a2 e8 ff ff       	call   400cb0 <close@plt>
  40240e:	b8 ff ff ff ff       	mov    $0xffffffff,%eax
  402413:	e9 38 05 00 00       	jmp    402950 <submitr+0x709>
  402418:	48 c7 c2 ff ff ff ff 	mov    $0xffffffffffffffff,%rdx
  40241f:	4c 89 ef             	mov    %r13,%rdi
  402422:	b8 00 00 00 00       	mov    $0x0,%eax
  402427:	48 89 d1             	mov    %rdx,%rcx
  40242a:	f2 ae                	repnz scas %es:(%rdi),%al
  40242c:	48 f7 d1             	not    %rcx
  40242f:	48 89 ce             	mov    %rcx,%rsi
  402432:	4c 89 ff             	mov    %r15,%rdi
  402435:	48 89 d1             	mov    %rdx,%rcx
  402438:	f2 ae                	repnz scas %es:(%rdi),%al
  40243a:	48 f7 d1             	not    %rcx
  40243d:	49 89 c8             	mov    %rcx,%r8
  402440:	4c 89 f7             	mov    %r14,%rdi
  402443:	48 89 d1             	mov    %rdx,%rcx
  402446:	f2 ae                	repnz scas %es:(%rdi),%al
  402448:	49 29 c8             	sub    %rcx,%r8
  40244b:	48 8b 7c 24 08       	mov    0x8(%rsp),%rdi
  402450:	48 89 d1             	mov    %rdx,%rcx
  402453:	f2 ae                	repnz scas %es:(%rdi),%al
  402455:	49 29 c8             	sub    %rcx,%r8
  402458:	48 8d 44 76 fd       	lea    -0x3(%rsi,%rsi,2),%rax
  40245d:	49 8d 44 00 7b       	lea    0x7b(%r8,%rax,1),%rax
  402462:	48 3d 00 20 00 00    	cmp    $0x2000,%rax
  402468:	76 72                	jbe    4024dc <submitr+0x295>
  40246a:	48 b8 45 72 72 6f 72 	movabs $0x52203a726f727245,%rax
  402471:	3a 20 52 
  402474:	48 89 03             	mov    %rax,(%rbx)
  402477:	48 b8 65 73 75 6c 74 	movabs $0x747320746c757365,%rax
  40247e:	20 73 74 
  402481:	48 89 43 08          	mov    %rax,0x8(%rbx)
  402485:	48 b8 72 69 6e 67 20 	movabs $0x6f6f7420676e6972,%rax
  40248c:	74 6f 6f 
  40248f:	48 89 43 10          	mov    %rax,0x10(%rbx)
  402493:	48 b8 20 6c 61 72 67 	movabs $0x202e656772616c20,%rax
  40249a:	65 2e 20 
  40249d:	48 89 43 18          	mov    %rax,0x18(%rbx)
  4024a1:	48 b8 49 6e 63 72 65 	movabs $0x6573616572636e49,%rax
  4024a8:	61 73 65 
  4024ab:	48 89 43 20          	mov    %rax,0x20(%rbx)
  4024af:	48 b8 20 53 55 42 4d 	movabs $0x5254494d42555320,%rax
  4024b6:	49 54 52 
  4024b9:	48 89 43 28          	mov    %rax,0x28(%rbx)
  4024bd:	48 b8 5f 4d 41 58 42 	movabs $0x46554258414d5f,%rax
  4024c4:	55 46 00 
  4024c7:	48 89 43 30          	mov    %rax,0x30(%rbx)
  4024cb:	89 ef                	mov    %ebp,%edi
  4024cd:	e8 de e7 ff ff       	call   400cb0 <close@plt>
  4024d2:	b8 ff ff ff ff       	mov    $0xffffffff,%eax
  4024d7:	e9 74 04 00 00       	jmp    402950 <submitr+0x709>
  4024dc:	48 8d b4 24 20 40 00 	lea    0x4020(%rsp),%rsi
  4024e3:	00 
  4024e4:	b9 00 04 00 00       	mov    $0x400,%ecx
  4024e9:	b8 00 00 00 00       	mov    $0x0,%eax
  4024ee:	48 89 f7             	mov    %rsi,%rdi
  4024f1:	f3 48 ab             	rep stos %rax,%es:(%rdi)
  4024f4:	4c 89 ef             	mov    %r13,%rdi
  4024f7:	e8 0f fb ff ff       	call   40200b <urlencode>
  4024fc:	85 c0                	test   %eax,%eax
  4024fe:	0f 89 8a 00 00 00    	jns    40258e <submitr+0x347>
  402504:	48 b8 45 72 72 6f 72 	movabs $0x52203a726f727245,%rax
  40250b:	3a 20 52 
  40250e:	48 89 03             	mov    %rax,(%rbx)
  402511:	48 b8 65 73 75 6c 74 	movabs $0x747320746c757365,%rax
  402518:	20 73 74 
  40251b:	48 89 43 08          	mov    %rax,0x8(%rbx)
  40251f:	48 b8 72 69 6e 67 20 	movabs $0x6e6f6320676e6972,%rax
  402526:	63 6f 6e 
  402529:	48 89 43 10          	mov    %rax,0x10(%rbx)
  40252d:	48 b8 74 61 69 6e 73 	movabs $0x6e6120736e696174,%rax
  402534:	20 61 6e 
  402537:	48 89 43 18          	mov    %rax,0x18(%rbx)
  40253b:	48 b8 20 69 6c 6c 65 	movabs $0x6c6167656c6c6920,%rax
  402542:	67 61 6c 
  402545:	48 89 43 20          	mov    %rax,0x20(%rbx)
  402549:	48 b8 20 6f 72 20 75 	movabs $0x72706e7520726f20,%rax
  402550:	6e 70 72 
  402553:	48 89 43 28          	mov    %rax,0x28(%rbx)
  402557:	48 b8 69 6e 74 61 62 	movabs $0x20656c6261746e69,%rax
  40255e:	6c 65 20 
  402561:	48 89 43 30          	mov    %rax,0x30(%rbx)
  402565:	48 b8 63 68 61 72 61 	movabs $0x6574636172616863,%rax
  40256c:	63 74 65 
  40256f:	48 89 43 38          	mov    %rax,0x38(%rbx)
  402573:	66 c7 43 40 72 2e    	movw   $0x2e72,0x40(%rbx)
  402579:	c6 43 42 00          	movb   $0x0,0x42(%rbx)
  40257d:	89 ef                	mov    %ebp,%edi
  40257f:	e8 2c e7 ff ff       	call   400cb0 <close@plt>
  402584:	b8 ff ff ff ff       	mov    $0xffffffff,%eax
  402589:	e9 c2 03 00 00       	jmp    402950 <submitr+0x709>
  40258e:	4d 89 e1             	mov    %r12,%r9
  402591:	4c 8d 84 24 20 40 00 	lea    0x4020(%rsp),%r8
  402598:	00 
  402599:	4c 89 f9             	mov    %r15,%rcx
  40259c:	4c 89 f2             	mov    %r14,%rdx
  40259f:	be f8 34 40 00       	mov    $0x4034f8,%esi
  4025a4:	48 8d bc 24 20 60 00 	lea    0x6020(%rsp),%rdi
  4025ab:	00 
  4025ac:	b8 00 00 00 00       	mov    $0x0,%eax
  4025b1:	e8 2a e8 ff ff       	call   400de0 <sprintf@plt>
  4025b6:	48 8d bc 24 20 60 00 	lea    0x6020(%rsp),%rdi
  4025bd:	00 
  4025be:	b8 00 00 00 00       	mov    $0x0,%eax
  4025c3:	48 c7 c1 ff ff ff ff 	mov    $0xffffffffffffffff,%rcx
  4025ca:	f2 ae                	repnz scas %es:(%rdi),%al
  4025cc:	48 f7 d1             	not    %rcx
  4025cf:	48 8d 51 ff          	lea    -0x1(%rcx),%rdx
  4025d3:	48 8d b4 24 20 60 00 	lea    0x6020(%rsp),%rsi
  4025da:	00 
  4025db:	89 ef                	mov    %ebp,%edi
  4025dd:	e8 ff fa ff ff       	call   4020e1 <rio_writen>
  4025e2:	48 85 c0             	test   %rax,%rax
  4025e5:	79 6e                	jns    402655 <submitr+0x40e>
  4025e7:	48 b8 45 72 72 6f 72 	movabs $0x43203a726f727245,%rax
  4025ee:	3a 20 43 
  4025f1:	48 89 03             	mov    %rax,(%rbx)
  4025f4:	48 b8 6c 69 65 6e 74 	movabs $0x6e7520746e65696c,%rax
  4025fb:	20 75 6e 
  4025fe:	48 89 43 08          	mov    %rax,0x8(%rbx)
  402602:	48 b8 61 62 6c 65 20 	movabs $0x206f7420656c6261,%rax
  402609:	74 6f 20 
  40260c:	48 89 43 10          	mov    %rax,0x10(%rbx)
  402610:	48 b8 77 72 69 74 65 	movabs $0x6f74206574697277,%rax
  402617:	20 74 6f 
  40261a:	48 89 43 18          	mov    %rax,0x18(%rbx)
  40261e:	48 b8 20 74 68 65 20 	movabs $0x7365722065687420,%rax
  402625:	72 65 73 
  402628:	48 89 43 20          	mov    %rax,0x20(%rbx)
  40262c:	48 b8 75 6c 74 20 73 	movabs $0x7672657320746c75,%rax
  402633:	65 72 76 
  402636:	48 89 43 28          	mov    %rax,0x28(%rbx)
  40263a:	66 c7 43 30 65 72    	movw   $0x7265,0x30(%rbx)
  402640:	c6 43 32 00          	movb   $0x0,0x32(%rbx)
  402644:	89 ef                	mov    %ebp,%edi
  402646:	e8 65 e6 ff ff       	call   400cb0 <close@plt>
  40264b:	b8 ff ff ff ff       	mov    $0xffffffff,%eax
  402650:	e9 fb 02 00 00       	jmp    402950 <submitr+0x709>
  402655:	89 ee                	mov    %ebp,%esi
  402657:	48 8d bc 24 20 80 00 	lea    0x8020(%rsp),%rdi
  40265e:	00 
  40265f:	e8 6c f9 ff ff       	call   401fd0 <rio_readinitb>
  402664:	ba 00 20 00 00       	mov    $0x2000,%edx
  402669:	48 8d b4 24 20 60 00 	lea    0x6020(%rsp),%rsi
  402670:	00 
  402671:	48 8d bc 24 20 80 00 	lea    0x8020(%rsp),%rdi
  402678:	00 
  402679:	e8 46 fb ff ff       	call   4021c4 <rio_readlineb>
  40267e:	48 85 c0             	test   %rax,%rax
  402681:	7f 7d                	jg     402700 <submitr+0x4b9>
  402683:	48 b8 45 72 72 6f 72 	movabs $0x43203a726f727245,%rax
  40268a:	3a 20 43 
  40268d:	48 89 03             	mov    %rax,(%rbx)
  402690:	48 b8 6c 69 65 6e 74 	movabs $0x6e7520746e65696c,%rax
  402697:	20 75 6e 
  40269a:	48 89 43 08          	mov    %rax,0x8(%rbx)
  40269e:	48 b8 61 62 6c 65 20 	movabs $0x206f7420656c6261,%rax
  4026a5:	74 6f 20 
  4026a8:	48 89 43 10          	mov    %rax,0x10(%rbx)
  4026ac:	48 b8 72 65 61 64 20 	movabs $0x7269662064616572,%rax
  4026b3:	66 69 72 
  4026b6:	48 89 43 18          	mov    %rax,0x18(%rbx)
  4026ba:	48 b8 73 74 20 68 65 	movabs $0x6564616568207473,%rax
  4026c1:	61 64 65 
  4026c4:	48 89 43 20          	mov    %rax,0x20(%rbx)
  4026c8:	48 b8 72 20 66 72 6f 	movabs $0x72206d6f72662072,%rax
  4026cf:	6d 20 72 
  4026d2:	48 89 43 28          	mov    %rax,0x28(%rbx)
  4026d6:	48 b8 65 73 75 6c 74 	movabs $0x657320746c757365,%rax
  4026dd:	20 73 65 
  4026e0:	48 89 43 30          	mov    %rax,0x30(%rbx)
  4026e4:	c7 43 38 72 76 65 72 	movl   $0x72657672,0x38(%rbx)
  4026eb:	c6 43 3c 00          	movb   $0x0,0x3c(%rbx)
  4026ef:	89 ef                	mov    %ebp,%edi
  4026f1:	e8 ba e5 ff ff       	call   400cb0 <close@plt>
  4026f6:	b8 ff ff ff ff       	mov    $0xffffffff,%eax
  4026fb:	e9 50 02 00 00       	jmp    402950 <submitr+0x709>
  402700:	4c 8d 44 24 10       	lea    0x10(%rsp),%r8
  402705:	48 8d 8c 24 1c 20 00 	lea    0x201c(%rsp),%rcx
  40270c:	00 
  40270d:	48 8d 94 24 20 20 00 	lea    0x2020(%rsp),%rdx
  402714:	00 
  402715:	be 6f 35 40 00       	mov    $0x40356f,%esi
  40271a:	48 8d bc 24 20 60 00 	lea    0x6020(%rsp),%rdi
  402721:	00 
  402722:	b8 00 00 00 00       	mov    $0x0,%eax
  402727:	e8 44 e6 ff ff       	call   400d70 <__isoc99_sscanf@plt>
  40272c:	e9 98 00 00 00       	jmp    4027c9 <submitr+0x582>
  402731:	ba 00 20 00 00       	mov    $0x2000,%edx
  402736:	48 8d b4 24 20 60 00 	lea    0x6020(%rsp),%rsi
  40273d:	00 
  40273e:	48 8d bc 24 20 80 00 	lea    0x8020(%rsp),%rdi
  402745:	00 
  402746:	e8 79 fa ff ff       	call   4021c4 <rio_readlineb>
  40274b:	48 85 c0             	test   %rax,%rax
  40274e:	7f 79                	jg     4027c9 <submitr+0x582>
  402750:	48 b8 45 72 72 6f 72 	movabs $0x43203a726f727245,%rax
  402757:	3a 20 43 
  40275a:	48 89 03             	mov    %rax,(%rbx)
  40275d:	48 b8 6c 69 65 6e 74 	movabs $0x6e7520746e65696c,%rax
  402764:	20 75 6e 
  402767:	48 89 43 08          	mov    %rax,0x8(%rbx)
  40276b:	48 b8 61 62 6c 65 20 	movabs $0x206f7420656c6261,%rax
  402772:	74 6f 20 
  402775:	48 89 43 10          	mov    %rax,0x10(%rbx)
  402779:	48 b8 72 65 61 64 20 	movabs $0x6165682064616572,%rax
  402780:	68 65 61 
  402783:	48 89 43 18          	mov    %rax,0x18(%rbx)
  402787:	48 b8 64 65 72 73 20 	movabs $0x6f72662073726564,%rax
  40278e:	66 72 6f 
  402791:	48 89 43 20          	mov    %rax,0x20(%rbx)
  402795:	48 b8 6d 20 74 68 65 	movabs $0x657220656874206d,%rax
  40279c:	20 72 65 
  40279f:	48 89 43 28          	mov    %rax,0x28(%rbx)
  4027a3:	48 b8 73 75 6c 74 20 	movabs $0x72657320746c7573,%rax
  4027aa:	73 65 72 
  4027ad:	48 89 43 30          	mov    %rax,0x30(%rbx)
  4027b1:	c7 43 38 76 65 72 00 	movl   $0x726576,0x38(%rbx)
  4027b8:	89 ef                	mov    %ebp,%edi
  4027ba:	e8 f1 e4 ff ff       	call   400cb0 <close@plt>
  4027bf:	b8 ff ff ff ff       	mov    $0xffffffff,%eax
  4027c4:	e9 87 01 00 00       	jmp    402950 <submitr+0x709>
  4027c9:	0f b6 84 24 20 60 00 	movzbl 0x6020(%rsp),%eax
  4027d0:	00 
  4027d1:	83 e8 0d             	sub    $0xd,%eax
  4027d4:	75 15                	jne    4027eb <submitr+0x5a4>
  4027d6:	0f b6 84 24 21 60 00 	movzbl 0x6021(%rsp),%eax
  4027dd:	00 
  4027de:	83 e8 0a             	sub    $0xa,%eax
  4027e1:	75 08                	jne    4027eb <submitr+0x5a4>
  4027e3:	0f b6 84 24 22 60 00 	movzbl 0x6022(%rsp),%eax
  4027ea:	00 
  4027eb:	85 c0                	test   %eax,%eax
  4027ed:	0f 85 3e ff ff ff    	jne    402731 <submitr+0x4ea>
  4027f3:	ba 00 20 00 00       	mov    $0x2000,%edx
  4027f8:	48 8d b4 24 20 60 00 	lea    0x6020(%rsp),%rsi
  4027ff:	00 
  402800:	48 8d bc 24 20 80 00 	lea    0x8020(%rsp),%rdi
  402807:	00 
  402808:	e8 b7 f9 ff ff       	call   4021c4 <rio_readlineb>
  40280d:	48 85 c0             	test   %rax,%rax
  402810:	0f 8f 83 00 00 00    	jg     402899 <submitr+0x652>
  402816:	48 b8 45 72 72 6f 72 	movabs $0x43203a726f727245,%rax
  40281d:	3a 20 43 
  402820:	48 89 03             	mov    %rax,(%rbx)
  402823:	48 b8 6c 69 65 6e 74 	movabs $0x6e7520746e65696c,%rax
  40282a:	20 75 6e 
  40282d:	48 89 43 08          	mov    %rax,0x8(%rbx)
  402831:	48 b8 61 62 6c 65 20 	movabs $0x206f7420656c6261,%rax
  402838:	74 6f 20 
  40283b:	48 89 43 10          	mov    %rax,0x10(%rbx)
  40283f:	48 b8 72 65 61 64 20 	movabs $0x6174732064616572,%rax
  402846:	73 74 61 
  402849:	48 89 43 18          	mov    %rax,0x18(%rbx)
  40284d:	48 b8 74 75 73 20 6d 	movabs $0x7373656d20737574,%rax
  402854:	65 73 73 
  402857:	48 89 43 20          	mov    %rax,0x20(%rbx)
  40285b:	48 b8 61 67 65 20 66 	movabs $0x6d6f726620656761,%rax
  402862:	72 6f 6d 
  402865:	48 89 43 28          	mov    %rax,0x28(%rbx)
  402869:	48 b8 20 72 65 73 75 	movabs $0x20746c7573657220,%rax
  402870:	6c 74 20 
  402873:	48 89 43 30          	mov    %rax,0x30(%rbx)
  402877:	c7 43 38 73 65 72 76 	movl   $0x76726573,0x38(%rbx)
  40287e:	66 c7 43 3c 65 72    	movw   $0x7265,0x3c(%rbx)
  402884:	c6 43 3e 00          	movb   $0x0,0x3e(%rbx)
  402888:	89 ef                	mov    %ebp,%edi
  40288a:	e8 21 e4 ff ff       	call   400cb0 <close@plt>
  40288f:	b8 ff ff ff ff       	mov    $0xffffffff,%eax
  402894:	e9 b7 00 00 00       	jmp    402950 <submitr+0x709>
  402899:	8b 94 24 1c 20 00 00 	mov    0x201c(%rsp),%edx
  4028a0:	81 fa c8 00 00 00    	cmp    $0xc8,%edx
  4028a6:	74 28                	je     4028d0 <submitr+0x689>
  4028a8:	48 8d 4c 24 10       	lea    0x10(%rsp),%rcx
  4028ad:	be 38 35 40 00       	mov    $0x403538,%esi
  4028b2:	48 89 df             	mov    %rbx,%rdi
  4028b5:	b8 00 00 00 00       	mov    $0x0,%eax
  4028ba:	e8 21 e5 ff ff       	call   400de0 <sprintf@plt>
  4028bf:	89 ef                	mov    %ebp,%edi
  4028c1:	e8 ea e3 ff ff       	call   400cb0 <close@plt>
  4028c6:	b8 ff ff ff ff       	mov    $0xffffffff,%eax
  4028cb:	e9 80 00 00 00       	jmp    402950 <submitr+0x709>
  4028d0:	48 8d b4 24 20 60 00 	lea    0x6020(%rsp),%rsi
  4028d7:	00 
  4028d8:	48 89 df             	mov    %rbx,%rdi
  4028db:	e8 60 e3 ff ff       	call   400c40 <strcpy@plt>
  4028e0:	89 ef                	mov    %ebp,%edi
  4028e2:	e8 c9 e3 ff ff       	call   400cb0 <close@plt>
  4028e7:	0f b6 03             	movzbl (%rbx),%eax
  4028ea:	83 e8 4f             	sub    $0x4f,%eax
  4028ed:	75 18                	jne    402907 <submitr+0x6c0>
  4028ef:	0f b6 53 01          	movzbl 0x1(%rbx),%edx
  4028f3:	83 ea 4b             	sub    $0x4b,%edx
  4028f6:	75 11                	jne    402909 <submitr+0x6c2>
  4028f8:	0f b6 53 02          	movzbl 0x2(%rbx),%edx
  4028fc:	83 ea 0a             	sub    $0xa,%edx
  4028ff:	75 08                	jne    402909 <submitr+0x6c2>
  402901:	0f b6 53 03          	movzbl 0x3(%rbx),%edx
  402905:	eb 02                	jmp    402909 <submitr+0x6c2>
  402907:	89 c2                	mov    %eax,%edx
  402909:	85 d2                	test   %edx,%edx
  40290b:	74 30                	je     40293d <submitr+0x6f6>
  40290d:	bf 80 35 40 00       	mov    $0x403580,%edi
  402912:	b9 05 00 00 00       	mov    $0x5,%ecx
  402917:	48 89 de             	mov    %rbx,%rsi
  40291a:	f3 a6                	repz cmpsb %es:(%rdi),%ds:(%rsi)
  40291c:	0f 97 c1             	seta   %cl
  40291f:	0f 92 c2             	setb   %dl
  402922:	38 d1                	cmp    %dl,%cl
  402924:	74 1e                	je     402944 <submitr+0x6fd>
  402926:	85 c0                	test   %eax,%eax
  402928:	75 0d                	jne    402937 <submitr+0x6f0>
  40292a:	0f b6 43 01          	movzbl 0x1(%rbx),%eax
  40292e:	83 e8 4b             	sub    $0x4b,%eax
  402931:	75 04                	jne    402937 <submitr+0x6f0>
  402933:	0f b6 43 02          	movzbl 0x2(%rbx),%eax
  402937:	85 c0                	test   %eax,%eax
  402939:	75 10                	jne    40294b <submitr+0x704>
  40293b:	eb 13                	jmp    402950 <submitr+0x709>
  40293d:	b8 00 00 00 00       	mov    $0x0,%eax
  402942:	eb 0c                	jmp    402950 <submitr+0x709>
  402944:	b8 00 00 00 00       	mov    $0x0,%eax
  402949:	eb 05                	jmp    402950 <submitr+0x709>
  40294b:	b8 ff ff ff ff       	mov    $0xffffffff,%eax
  402950:	48 81 c4 48 a0 00 00 	add    $0xa048,%rsp
  402957:	5b                   	pop    %rbx
  402958:	5d                   	pop    %rbp
  402959:	41 5c                	pop    %r12
  40295b:	41 5d                	pop    %r13
  40295d:	41 5e                	pop    %r14
  40295f:	41 5f                	pop    %r15
  402961:	c3                   	ret    

0000000000402962 <init_timeout>:
  402962:	53                   	push   %rbx
  402963:	89 fb                	mov    %edi,%ebx
  402965:	85 ff                	test   %edi,%edi
  402967:	74 1f                	je     402988 <init_timeout+0x26>
  402969:	85 ff                	test   %edi,%edi
  40296b:	79 05                	jns    402972 <init_timeout+0x10>
  40296d:	bb 00 00 00 00       	mov    $0x0,%ebx
  402972:	be e2 1f 40 00       	mov    $0x401fe2,%esi
  402977:	bf 0e 00 00 00       	mov    $0xe,%edi
  40297c:	e8 5f e3 ff ff       	call   400ce0 <signal@plt>
  402981:	89 df                	mov    %ebx,%edi
  402983:	e8 18 e3 ff ff       	call   400ca0 <alarm@plt>
  402988:	5b                   	pop    %rbx
  402989:	c3                   	ret    

000000000040298a <init_driver>:
  40298a:	55                   	push   %rbp
  40298b:	53                   	push   %rbx
  40298c:	48 83 ec 18          	sub    $0x18,%rsp
  402990:	48 89 fd             	mov    %rdi,%rbp
  402993:	be 01 00 00 00       	mov    $0x1,%esi
  402998:	bf 0d 00 00 00       	mov    $0xd,%edi
  40299d:	e8 3e e3 ff ff       	call   400ce0 <signal@plt>
  4029a2:	be 01 00 00 00       	mov    $0x1,%esi
  4029a7:	bf 1d 00 00 00       	mov    $0x1d,%edi
  4029ac:	e8 2f e3 ff ff       	call   400ce0 <signal@plt>
  4029b1:	be 01 00 00 00       	mov    $0x1,%esi
  4029b6:	bf 1d 00 00 00       	mov    $0x1d,%edi
  4029bb:	e8 20 e3 ff ff       	call   400ce0 <signal@plt>
  4029c0:	ba 00 00 00 00       	mov    $0x0,%edx
  4029c5:	be 01 00 00 00       	mov    $0x1,%esi
  4029ca:	bf 02 00 00 00       	mov    $0x2,%edi
  4029cf:	e8 3c e4 ff ff       	call   400e10 <socket@plt>
  4029d4:	89 c3                	mov    %eax,%ebx
  4029d6:	85 c0                	test   %eax,%eax
  4029d8:	79 4f                	jns    402a29 <init_driver+0x9f>
  4029da:	48 b8 45 72 72 6f 72 	movabs $0x43203a726f727245,%rax
  4029e1:	3a 20 43 
  4029e4:	48 89 45 00          	mov    %rax,0x0(%rbp)
  4029e8:	48 b8 6c 69 65 6e 74 	movabs $0x6e7520746e65696c,%rax
  4029ef:	20 75 6e 
  4029f2:	48 89 45 08          	mov    %rax,0x8(%rbp)
  4029f6:	48 b8 61 62 6c 65 20 	movabs $0x206f7420656c6261,%rax
  4029fd:	74 6f 20 
  402a00:	48 89 45 10          	mov    %rax,0x10(%rbp)
  402a04:	48 b8 63 72 65 61 74 	movabs $0x7320657461657263,%rax
  402a0b:	65 20 73 
  402a0e:	48 89 45 18          	mov    %rax,0x18(%rbp)
  402a12:	c7 45 20 6f 63 6b 65 	movl   $0x656b636f,0x20(%rbp)
  402a19:	66 c7 45 24 74 00    	movw   $0x74,0x24(%rbp)
  402a1f:	b8 ff ff ff ff       	mov    $0xffffffff,%eax
  402a24:	e9 23 01 00 00       	jmp    402b4c <init_driver+0x1c2>
  402a29:	bf c8 2f 40 00       	mov    $0x402fc8,%edi
  402a2e:	e8 bd e2 ff ff       	call   400cf0 <gethostbyname@plt>
  402a33:	48 85 c0             	test   %rax,%rax
  402a36:	75 68                	jne    402aa0 <init_driver+0x116>
  402a38:	48 b8 45 72 72 6f 72 	movabs $0x44203a726f727245,%rax
  402a3f:	3a 20 44 
  402a42:	48 89 45 00          	mov    %rax,0x0(%rbp)
  402a46:	48 b8 4e 53 20 69 73 	movabs $0x6e7520736920534e,%rax
  402a4d:	20 75 6e 
  402a50:	48 89 45 08          	mov    %rax,0x8(%rbp)
  402a54:	48 b8 61 62 6c 65 20 	movabs $0x206f7420656c6261,%rax
  402a5b:	74 6f 20 
  402a5e:	48 89 45 10          	mov    %rax,0x10(%rbp)
  402a62:	48 b8 72 65 73 6f 6c 	movabs $0x2065766c6f736572,%rax
  402a69:	76 65 20 
  402a6c:	48 89 45 18          	mov    %rax,0x18(%rbp)
  402a70:	48 b8 73 65 72 76 65 	movabs $0x6120726576726573,%rax
  402a77:	72 20 61 
  402a7a:	48 89 45 20          	mov    %rax,0x20(%rbp)
  402a7e:	c7 45 28 64 64 72 65 	movl   $0x65726464,0x28(%rbp)
  402a85:	66 c7 45 2c 73 73    	movw   $0x7373,0x2c(%rbp)
  402a8b:	c6 45 2e 00          	movb   $0x0,0x2e(%rbp)
  402a8f:	89 df                	mov    %ebx,%edi
  402a91:	e8 1a e2 ff ff       	call   400cb0 <close@plt>
  402a96:	b8 ff ff ff ff       	mov    $0xffffffff,%eax
  402a9b:	e9 ac 00 00 00       	jmp    402b4c <init_driver+0x1c2>
  402aa0:	48 c7 04 24 00 00 00 	movq   $0x0,(%rsp)
  402aa7:	00 
  402aa8:	48 c7 44 24 08 00 00 	movq   $0x0,0x8(%rsp)
  402aaf:	00 00 
  402ab1:	66 c7 04 24 02 00    	movw   $0x2,(%rsp)
  402ab7:	48 8b 48 18          	mov    0x18(%rax),%rcx
  402abb:	48 63 50 14          	movslq 0x14(%rax),%rdx
  402abf:	48 8d 74 24 04       	lea    0x4(%rsp),%rsi
  402ac4:	48 8b 39             	mov    (%rcx),%rdi
  402ac7:	e8 c4 e2 ff ff       	call   400d90 <bcopy@plt>
  402acc:	66 c7 44 24 02 47 26 	movw   $0x2647,0x2(%rsp)
  402ad3:	ba 10 00 00 00       	mov    $0x10,%edx
  402ad8:	48 89 e6             	mov    %rsp,%rsi
  402adb:	89 df                	mov    %ebx,%edi
  402add:	e8 1e e3 ff ff       	call   400e00 <connect@plt>
  402ae2:	85 c0                	test   %eax,%eax
  402ae4:	79 50                	jns    402b36 <init_driver+0x1ac>
  402ae6:	48 b8 45 72 72 6f 72 	movabs $0x55203a726f727245,%rax
  402aed:	3a 20 55 
  402af0:	48 89 45 00          	mov    %rax,0x0(%rbp)
  402af4:	48 b8 6e 61 62 6c 65 	movabs $0x6f7420656c62616e,%rax
  402afb:	20 74 6f 
  402afe:	48 89 45 08          	mov    %rax,0x8(%rbp)
  402b02:	48 b8 20 63 6f 6e 6e 	movabs $0x7463656e6e6f6320,%rax
  402b09:	65 63 74 
  402b0c:	48 89 45 10          	mov    %rax,0x10(%rbp)
  402b10:	48 b8 20 74 6f 20 73 	movabs $0x76726573206f7420,%rax
  402b17:	65 72 76 
  402b1a:	48 89 45 18          	mov    %rax,0x18(%rbp)
  402b1e:	66 c7 45 20 65 72    	movw   $0x7265,0x20(%rbp)
  402b24:	c6 45 22 00          	movb   $0x0,0x22(%rbp)
  402b28:	89 df                	mov    %ebx,%edi
  402b2a:	e8 81 e1 ff ff       	call   400cb0 <close@plt>
  402b2f:	b8 ff ff ff ff       	mov    $0xffffffff,%eax
  402b34:	eb 16                	jmp    402b4c <init_driver+0x1c2>
  402b36:	89 df                	mov    %ebx,%edi
  402b38:	e8 73 e1 ff ff       	call   400cb0 <close@plt>
  402b3d:	66 c7 45 00 4f 4b    	movw   $0x4b4f,0x0(%rbp)
  402b43:	c6 45 02 00          	movb   $0x0,0x2(%rbp)
  402b47:	b8 00 00 00 00       	mov    $0x0,%eax
  402b4c:	48 83 c4 18          	add    $0x18,%rsp
  402b50:	5b                   	pop    %rbx
  402b51:	5d                   	pop    %rbp
  402b52:	c3                   	ret    

0000000000402b53 <driver_post>:
  402b53:	53                   	push   %rbx
  402b54:	48 83 ec 10          	sub    $0x10,%rsp
  402b58:	4c 89 cb             	mov    %r9,%rbx
  402b5b:	45 85 c0             	test   %r8d,%r8d
  402b5e:	74 22                	je     402b82 <driver_post+0x2f>
  402b60:	48 89 ce             	mov    %rcx,%rsi
  402b63:	bf 85 35 40 00       	mov    $0x403585,%edi
  402b68:	b8 00 00 00 00       	mov    $0x0,%eax
  402b6d:	e8 0e e1 ff ff       	call   400c80 <printf@plt>
  402b72:	66 c7 03 4f 4b       	movw   $0x4b4f,(%rbx)
  402b77:	c6 43 02 00          	movb   $0x0,0x2(%rbx)
  402b7b:	b8 00 00 00 00       	mov    $0x0,%eax
  402b80:	eb 39                	jmp    402bbb <driver_post+0x68>
  402b82:	48 85 ff             	test   %rdi,%rdi
  402b85:	74 26                	je     402bad <driver_post+0x5a>
  402b87:	80 3f 00             	cmpb   $0x0,(%rdi)
  402b8a:	74 21                	je     402bad <driver_post+0x5a>
  402b8c:	4c 89 0c 24          	mov    %r9,(%rsp)
  402b90:	49 89 c9             	mov    %rcx,%r9
  402b93:	49 89 d0             	mov    %rdx,%r8
  402b96:	48 89 f9             	mov    %rdi,%rcx
  402b99:	48 89 f2             	mov    %rsi,%rdx
  402b9c:	be 26 47 00 00       	mov    $0x4726,%esi
  402ba1:	bf c8 2f 40 00       	mov    $0x402fc8,%edi
  402ba6:	e8 9c f6 ff ff       	call   402247 <submitr>
  402bab:	eb 0e                	jmp    402bbb <driver_post+0x68>
  402bad:	66 c7 03 4f 4b       	movw   $0x4b4f,(%rbx)
  402bb2:	c6 43 02 00          	movb   $0x0,0x2(%rbx)
  402bb6:	b8 00 00 00 00       	mov    $0x0,%eax
  402bbb:	48 83 c4 10          	add    $0x10,%rsp
  402bbf:	5b                   	pop    %rbx
  402bc0:	c3                   	ret    

0000000000402bc1 <check>:
  402bc1:	89 f8                	mov    %edi,%eax
  402bc3:	c1 e8 1c             	shr    $0x1c,%eax
  402bc6:	85 c0                	test   %eax,%eax
  402bc8:	74 1d                	je     402be7 <check+0x26>
  402bca:	b9 00 00 00 00       	mov    $0x0,%ecx
  402bcf:	eb 0b                	jmp    402bdc <check+0x1b>
  402bd1:	89 f8                	mov    %edi,%eax
  402bd3:	d3 e8                	shr    %cl,%eax
  402bd5:	3c 0a                	cmp    $0xa,%al
  402bd7:	74 14                	je     402bed <check+0x2c>
  402bd9:	83 c1 08             	add    $0x8,%ecx
  402bdc:	83 f9 1f             	cmp    $0x1f,%ecx
  402bdf:	7e f0                	jle    402bd1 <check+0x10>
  402be1:	b8 01 00 00 00       	mov    $0x1,%eax
  402be6:	c3                   	ret    
  402be7:	b8 00 00 00 00       	mov    $0x0,%eax
  402bec:	c3                   	ret    
  402bed:	b8 00 00 00 00       	mov    $0x0,%eax
  402bf2:	c3                   	ret    

0000000000402bf3 <gencookie>:
  402bf3:	53                   	push   %rbx
  402bf4:	83 c7 01             	add    $0x1,%edi
  402bf7:	e8 24 e0 ff ff       	call   400c20 <srandom@plt>
  402bfc:	e8 4f e1 ff ff       	call   400d50 <random@plt>
  402c01:	89 c3                	mov    %eax,%ebx
  402c03:	89 c7                	mov    %eax,%edi
  402c05:	e8 b7 ff ff ff       	call   402bc1 <check>
  402c0a:	85 c0                	test   %eax,%eax
  402c0c:	74 ee                	je     402bfc <gencookie+0x9>
  402c0e:	89 d8                	mov    %ebx,%eax
  402c10:	5b                   	pop    %rbx
  402c11:	c3                   	ret    
  402c12:	66 2e 0f 1f 84 00 00 	cs nopw 0x0(%rax,%rax,1)
  402c19:	00 00 00 
  402c1c:	0f 1f 40 00          	nopl   0x0(%rax)

0000000000402c20 <__libc_csu_init>:
  402c20:	41 57                	push   %r15
  402c22:	41 89 ff             	mov    %edi,%r15d
  402c25:	41 56                	push   %r14
  402c27:	49 89 f6             	mov    %rsi,%r14
  402c2a:	41 55                	push   %r13
  402c2c:	49 89 d5             	mov    %rdx,%r13
  402c2f:	41 54                	push   %r12
  402c31:	4c 8d 25 d8 21 20 00 	lea    0x2021d8(%rip),%r12        # 604e10 <__frame_dummy_init_array_entry>
  402c38:	55                   	push   %rbp
  402c39:	48 8d 2d d8 21 20 00 	lea    0x2021d8(%rip),%rbp        # 604e18 <__do_global_dtors_aux_fini_array_entry>
  402c40:	53                   	push   %rbx
  402c41:	4c 29 e5             	sub    %r12,%rbp
  402c44:	31 db                	xor    %ebx,%ebx
  402c46:	48 c1 fd 03          	sar    $0x3,%rbp
  402c4a:	48 83 ec 08          	sub    $0x8,%rsp
  402c4e:	e8 75 df ff ff       	call   400bc8 <_init>
  402c53:	48 85 ed             	test   %rbp,%rbp
  402c56:	74 1e                	je     402c76 <__libc_csu_init+0x56>
  402c58:	0f 1f 84 00 00 00 00 	nopl   0x0(%rax,%rax,1)
  402c5f:	00 
  402c60:	4c 89 ea             	mov    %r13,%rdx
  402c63:	4c 89 f6             	mov    %r14,%rsi
  402c66:	44 89 ff             	mov    %r15d,%edi
  402c69:	41 ff 14 dc          	call   *(%r12,%rbx,8)
  402c6d:	48 83 c3 01          	add    $0x1,%rbx
  402c71:	48 39 eb             	cmp    %rbp,%rbx
  402c74:	75 ea                	jne    402c60 <__libc_csu_init+0x40>
  402c76:	48 83 c4 08          	add    $0x8,%rsp
  402c7a:	5b                   	pop    %rbx
  402c7b:	5d                   	pop    %rbp
  402c7c:	41 5c                	pop    %r12
  402c7e:	41 5d                	pop    %r13
  402c80:	41 5e                	pop    %r14
  402c82:	41 5f                	pop    %r15
  402c84:	c3                   	ret    
  402c85:	90                   	nop
  402c86:	66 2e 0f 1f 84 00 00 	cs nopw 0x0(%rax,%rax,1)
  402c8d:	00 00 00 

0000000000402c90 <__libc_csu_fini>:
  402c90:	f3 c3                	repz ret 

Disassembly of section .fini:

0000000000402c94 <_fini>:
  402c94:	48 83 ec 08          	sub    $0x8,%rsp
  402c98:	48 83 c4 08          	add    $0x8,%rsp
  402c9c:	c3                   	ret    
